(dp0
S'./Data/rs-6d-c3_obj2.csv'
p1
(lp2
I9
aI0
aI3
aI0
aI8
aI3
aI17
aI0
aI23
aI23
aI23
aI0
aI21
aI2
aI0
aI23
aI2
aI0
aI0
aI16
asS'./Data/rs-6d-c3_obj1.csv'
p3
(lp4
I0
aI57
aI6
aI303
aI6
aI8
aI4
aI55
aI13
aI54
aI0
aI0
aI1
aI32
aI0
aI0
aI2
aI23
aI0
aI18
asS'./Data/wc-6d-c1-obj1.csv'
p5
(lp6
I4
aI1
aI1
aI3
aI2
aI0
aI0
aI1
aI7
aI6
aI0
aI2
aI1
aI0
aI0
aI0
aI3
aI0
aI2
aI0
asS'./Data/wc+rs-3d-c4-obj2.csv'
p7
(lp8
I0
aI0
aI0
aI0
aI1
aI0
aI0
aI0
aI0
aI0
aI0
aI0
aI0
aI0
aI0
aI0
aI0
aI0
aI0
aI2
asS'./Data/sol-6d-c2-obj2.csv'
p9
(lp10
I1
aI0
aI0
aI0
aI1
aI1
aI3
aI1
aI1
aI0
aI0
aI3
aI1
aI0
aI0
aI0
aI0
aI0
aI2
aI1
asS'./Data/lrzip.csv'
p11
(lp12
I1
aI1
aI1
aI0
aI0
aI1
aI1
aI0
aI0
aI1
aI0
aI1
aI0
aI1
aI0
aI0
aI2
aI0
aI0
aI0
asS'./Data/WGet.csv'
p13
(lp14
I0
aI0
aI1
aI1
aI1
aI0
aI0
aI0
aI0
aI7
aI2
aI7
aI0
aI0
aI0
aI0
aI0
aI1
aI7
aI0
asS'./Data/wc+wc-3d-c4-obj1.csv'
p15
(lp16
I0
aI0
aI0
aI0
aI0
aI0
aI0
aI0
aI0
aI0
aI7
aI0
aI0
aI0
aI0
aI0
aI0
aI0
aI0
aI0
asS'./Data/Apache_AllMeasurements.csv'
p17
(lp18
I0
aI0
aI0
aI0
aI0
aI0
aI0
aI1
aI0
aI0
aI0
aI0
aI0
aI0
aI1
aI0
aI0
aI0
aI0
aI0
asS'./Data/sort_256_obj2.csv'
p19
(lp20
I0
aI0
aI0
aI0
aI0
aI0
aI0
aI0
aI0
aI0
aI0
aI0
aI0
aI0
aI0
aI0
aI0
aI0
aI0
aI0
asS'./Data/BDBC_AllMeasurements.csv'
p21
(lp22
I1
aI0
aI3
aI128
aI128
aI129
aI0
aI0
aI0
aI0
aI2
aI1
aI0
aI136
aI132
aI0
aI18
aI0
aI128
aI5
asS'./Data/wc+sol-3d-c4-obj2.csv'
p23
(lp24
I0
aI0
aI0
aI0
aI14
aI0
aI0
aI0
aI0
aI0
aI1
aI0
aI1
aI0
aI0
aI0
aI0
aI0
aI0
aI1
asS'./Data/sol-6d-c2-obj1.csv'
p25
(lp26
I18
aI4
aI30
aI4
aI84
aI6
aI9
aI84
aI4
aI2
aI31
aI84
aI18
aI9
aI90
aI14
aI84
aI9
aI9
aI4
asS'./Data/X264_AllMeasurements.csv'
p27
(lp28
I0
aI0
aI0
aI0
aI0
aI0
aI0
aI0
aI0
aI0
aI0
aI0
aI0
aI0
aI0
aI0
aI0
aI0
aI0
aI0
asS'./Data/wc+rs-3d-c4-obj1.csv'
p29
(lp30
I0
aI0
aI0
aI0
aI0
aI0
aI0
aI0
aI0
aI0
aI0
aI0
aI0
aI0
aI0
aI0
aI0
aI0
aI0
aI0
asS'./Data/SQL_AllMeasurements.csv'
p31
(lp32
I42
aI108
aI4
aI208
aI44
aI57
aI36
aI113
aI19
aI15
aI4
aI67
aI190
aI321
aI22
aI114
aI4
aI8
aI105
aI18
asS'./Data/wc+sol-3d-c4-obj1.csv'
p33
(lp34
I0
aI3
aI0
aI0
aI0
aI3
aI0
aI3
aI0
aI0
aI0
aI0
aI0
aI0
aI0
aI0
aI0
aI0
aI0
aI0
asS'./Data/wc-6d-c1-obj2.csv'
p35
(lp36
I3
aI2
aI0
aI0
aI67
aI45
aI0
aI0
aI0
aI4
aI0
aI2
aI0
aI0
aI0
aI4
aI2
aI44
aI0
aI1
asS'./Data/HSMGP_num.csv'
p37
(lp38
I8
aI5
aI5
aI0
aI5
aI2
aI0
aI19
aI5
aI5
aI69
aI8
aI0
aI8
aI0
aI5
aI0
aI1
aI2
aI0
asS'./Data/wc-3d-c4_obj2.csv'
p39
(lp40
I0
aI1
aI1
aI1
aI1
aI1
aI1
aI1
aI2
aI1
aI4
aI1
aI1
aI0
aI0
aI1
aI1
aI1
aI0
aI1
asS'./Data/Dune.csv'
p41
(lp42
I10
aI3
aI127
aI5
aI63
aI3
aI5
aI4
aI3
aI3
aI1
aI9
aI2
aI3
aI3
aI2
aI3
aI6
aI3
aI2
asS'./Data/wc+wc-3d-c4-obj2.csv'
p43
(lp44
I1
aI2
aI1
aI10
aI0
aI2
aI1
aI2
aI0
aI0
aI0
aI2
aI0
aI0
aI1
aI0
aI0
aI0
aI0
aI2
as.