(dp0
S'./Data/rs-6d-c3_obj2.csv'
p1
(lp2
I39
aI37
aI42
aI46
aI39
aI36
aI30
aI46
aI43
aI36
aI30
aI39
aI34
aI40
aI53
aI33
aI44
aI43
aI39
aI39
asS'./Data/rs-6d-c3_obj1.csv'
p3
(lp4
I41
aI60
aI50
aI38
aI54
aI40
aI38
aI40
aI41
aI34
aI43
aI30
aI43
aI35
aI35
aI34
aI31
aI30
aI38
aI31
asS'./Data/wc-6d-c1-obj1.csv'
p5
(lp6
I37
aI49
aI40
aI36
aI41
aI41
aI45
aI38
aI36
aI34
aI57
aI37
aI36
aI31
aI55
aI56
aI41
aI61
aI34
aI39
asS'./Data/wc+rs-3d-c4-obj2.csv'
p7
(lp8
I32
aI30
aI34
aI41
aI32
aI36
aI30
aI39
aI37
aI41
aI36
aI35
aI34
aI42
aI43
aI40
aI30
aI42
aI35
aI30
asS'./Data/sol-6d-c2-obj2.csv'
p9
(lp10
I52
aI42
aI43
aI48
aI37
aI45
aI31
aI50
aI46
aI30
aI30
aI38
aI46
aI44
aI41
aI34
aI48
aI48
aI33
aI33
asS'./Data/lrzip.csv'
p11
(lp12
I30
aI35
aI36
aI35
aI48
aI34
aI45
aI48
aI30
aI38
aI33
aI32
aI30
aI32
aI43
aI34
aI31
aI45
aI48
aI37
asS'./Data/WGet.csv'
p13
(lp14
I39
aI39
aI33
aI30
aI34
aI42
aI30
aI30
aI30
aI30
aI30
aI30
aI30
aI30
aI37
aI30
aI30
aI35
aI30
aI30
asS'./Data/wc+wc-3d-c4-obj1.csv'
p15
(lp16
I35
aI32
aI37
aI34
aI38
aI36
aI35
aI36
aI34
aI36
aI39
aI39
aI38
aI39
aI32
aI35
aI34
aI31
aI32
aI34
asS'./Data/Apache_AllMeasurements.csv'
p17
(lp18
I39
aI32
aI43
aI34
aI30
aI30
aI31
aI36
aI34
aI34
aI34
aI36
aI36
aI30
aI32
aI30
aI33
aI39
aI38
aI30
asS'./Data/sort_256_obj2.csv'
p19
(lp20
I34
aI32
aI37
aI31
aI35
aI34
aI34
aI33
aI31
aI36
aI33
aI33
aI30
aI36
aI35
aI32
aI33
aI33
aI34
aI38
asS'./Data/BDBC_AllMeasurements.csv'
p21
(lp22
I43
aI53
aI45
aI46
aI47
aI42
aI44
aI44
aI49
aI56
aI30
aI51
aI48
aI33
aI50
aI46
aI30
aI64
aI45
aI31
asS'./Data/wc+sol-3d-c4-obj2.csv'
p23
(lp24
I36
aI35
aI30
aI33
aI30
aI38
aI35
aI43
aI35
aI39
aI37
aI42
aI30
aI30
aI44
aI35
aI30
aI37
aI43
aI30
asS'./Data/sol-6d-c2-obj1.csv'
p25
(lp26
I38
aI46
aI40
aI42
aI42
aI35
aI65
aI43
aI50
aI35
aI45
aI41
aI36
aI40
aI30
aI30
aI38
aI30
aI36
aI53
asS'./Data/X264_AllMeasurements.csv'
p27
(lp28
I41
aI34
aI42
aI39
aI40
aI37
aI41
aI45
aI44
aI35
aI38
aI42
aI36
aI39
aI42
aI43
aI49
aI33
aI40
aI44
asS'./Data/wc+rs-3d-c4-obj1.csv'
p29
(lp30
I30
aI36
aI32
aI30
aI30
aI34
aI38
aI36
aI43
aI31
aI38
aI33
aI40
aI33
aI33
aI38
aI40
aI33
aI36
aI36
asS'./Data/SQL_AllMeasurements.csv'
p31
(lp32
I30
aI30
aI41
aI30
aI30
aI30
aI34
aI38
aI40
aI30
aI32
aI46
aI30
aI38
aI37
aI30
aI40
aI32
aI30
aI30
asS'./Data/wc+sol-3d-c4-obj1.csv'
p33
(lp34
I36
aI35
aI30
aI32
aI35
aI33
aI41
aI38
aI37
aI36
aI36
aI38
aI36
aI32
aI36
aI32
aI30
aI39
aI35
aI39
asS'./Data/wc-6d-c1-obj2.csv'
p35
(lp36
I46
aI56
aI41
aI39
aI33
aI30
aI49
aI45
aI48
aI39
aI34
aI30
aI36
aI53
aI56
aI37
aI47
aI30
aI44
aI39
asS'./Data/HSMGP_num.csv'
p37
(lp38
I33
aI65
aI50
aI44
aI39
aI30
aI30
aI47
aI39
aI49
aI30
aI46
aI34
aI46
aI38
aI53
aI40
aI40
aI51
aI37
asS'./Data/wc-3d-c4_obj2.csv'
p39
(lp40
I30
aI40
aI33
aI40
aI37
aI34
aI39
aI35
aI31
aI35
aI37
aI43
aI38
aI30
aI35
aI36
aI37
aI36
aI43
aI49
asS'./Data/Dune.csv'
p41
(lp42
I39
aI43
aI30
aI40
aI35
aI47
aI44
aI44
aI43
aI39
aI44
aI30
aI34
aI38
aI43
aI43
aI59
aI36
aI49
aI40
asS'./Data/wc+wc-3d-c4-obj2.csv'
p43
(lp44
I34
aI30
aI31
aI31
aI40
aI31
aI31
aI33
aI31
aI32
aI44
aI30
aI34
aI36
aI32
aI32
aI35
aI30
aI32
aI30
as.