(dp0
S'./Data/SS-O2.csv'
p1
(dp2
S'evals'
p3
(lp4
I36
aI47
aI44
aI56
aI40
aI30
aI39
aI37
aI31
aI31
asS'rank_diff'
p5
(lp6
I16
aI16
aI3
aI3
aI33
aI3
aI0
aI32
aI3
aI12
asS'testsize'
p7
(lp8
I52339
aI52339
aI52339
aI52339
aI52339
aI52339
aI52339
aI52339
aI52339
aI52339
assS'./Data/SS-M1.csv'
p9
(dp10
g3
(lp11
I30
aI30
aI30
aI30
aI30
aI30
aI30
aI30
aI30
aI30
asg5
(lp12
I1
aI1
aI1
aI1
aI1
aI1
aI1
aI1
aI1
aI1
asg7
(lp13
I191488
aI191488
aI191488
aI191488
aI191488
aI191488
aI191488
aI191488
aI191488
aI191488
assS'./Data/SS-N2.csv'
p14
(dp15
g3
(lp16
I49
aI42
aI31
aI37
aI30
aI35
aI47
aI61
aI35
aI45
asg5
(lp17
I0
aI0
aI554
aI0
aI12
aI12
aI0
aI773
aI0
aI0
asg7
(lp18
I42929
aI42929
aI42929
aI42929
aI42929
aI42929
aI42929
aI42929
aI42929
aI42929
assS'./Data/SS-M2.csv'
p19
(dp20
g3
(lp21
I31
aI72
aI30
aI43
aI31
aI30
aI37
aI48
aI34
aI30
asg5
(lp22
I5550
aI0
aI5479
aI1065
aI4662
aI697
aI6476
aI523
aI2949
aI4329
asg7
(lp23
I191488
aI191488
aI191488
aI191488
aI191488
aI191488
aI191488
aI191488
aI191488
aI191488
assS'./Data/SS-N1.csv'
p24
(dp25
g3
(lp26
I51
aI72
aI30
aI61
aI40
aI77
aI38
aI47
aI43
aI37
asg5
(lp27
I57
aI4
aI132
aI5
aI81
aI4
aI119
aI79
aI1098
aI59
asg7
(lp28
I42929
aI42929
aI42929
aI42929
aI42929
aI42929
aI42929
aI42929
aI42929
aI42929
assS'./Data/SS-O1.csv'
p29
(dp30
g3
(lp31
I30
aI30
aI30
aI30
aI30
aI30
aI30
aI30
aI30
aI30
asg5
(lp32
I0
aI0
aI0
aI0
aI0
aI0
aI0
aI0
aI0
aI0
asg7
(lp33
I52339
aI52339
aI52339
aI52339
aI52339
aI52339
aI52339
aI52339
aI52339
aI52339
ass.