(dp0
S'./Data/SS-M2.csv'
p1
(dp2
S'evals'
p3
(lp4
I31
aI72
aI30
aI43
aI31
aI30
aI37
aI48
aI34
aI30
asS'rank_diff'
p5
(lp6
I5550
aI0
aI5479
aI1065
aI4662
aI697
aI6476
aI523
aI2949
aI4329
asS'testsize'
p7
(lp8
I191488
aI191488
aI191488
aI191488
aI191488
aI191488
aI191488
aI191488
aI191488
aI191488
assS'./Data/SS-M1.csv'
p9
(dp10
g3
(lp11
I30
aI30
aI30
aI30
aI30
aI30
aI30
aI30
aI30
aI30
asg5
(lp12
I1
aI1
aI1
aI1
aI1
aI1
aI1
aI1
aI1
aI1
asg7
(lp13
I191488
aI191488
aI191488
aI191488
aI191488
aI191488
aI191488
aI191488
aI191488
aI191488
ass.