(dp0
S'./Data/SS-A2.csv'
p1
(dp2
S'evals'
p3
(lp4
I36
aI30
aI40
aI51
aI30
aI30
aI44
aI35
aI30
aI35
aI30
aI37
aI34
aI36
aI34
aI37
aI41
aI32
aI30
aI30
aI34
aI30
aI31
aI39
aI40
aI31
aI30
aI30
aI44
aI36
asS'rank_diff'
p5
(lp6
I11
aI2
aI59
aI0
aI1
aI14
aI23
aI59
aI7
aI9
aI12
aI0
aI0
aI0
aI2
aI5
aI4
aI0
aI41
aI56
aI16
aI8
aI10
aI0
aI0
aI0
aI1
aI10
aI0
aI0
asS'testsize'
p7
(lp8
I1074
aI1074
aI1074
aI1074
aI1074
aI1074
aI1074
aI1074
aI1074
aI1074
aI1074
aI1074
aI1074
aI1074
aI1074
aI1074
aI1074
aI1074
aI1074
aI1074
aI1074
aI1074
aI1074
aI1074
aI1074
aI1074
aI1074
aI1074
aI1074
aI1074
assS'./Data/SS-A1.csv'
p9
(dp10
g3
(lp11
I40
aI39
aI37
aI40
aI43
aI46
aI38
aI45
aI36
aI52
aI30
aI42
aI50
aI43
aI41
aI40
aI39
aI38
aI34
aI37
aI39
aI37
aI39
aI38
aI36
aI46
aI36
aI38
aI36
aI43
asg5
(lp12
I0
aI153
aI0
aI0
aI0
aI0
aI154
aI0
aI1
aI0
aI0
aI0
aI0
aI0
aI0
aI0
aI0
aI1
aI1
aI1
aI2
aI0
aI1
aI1
aI1
aI0
aI0
aI0
aI1
aI0
asg7
(lp13
I1074
aI1074
aI1074
aI1074
aI1074
aI1074
aI1074
aI1074
aI1074
aI1074
aI1074
aI1074
aI1074
aI1074
aI1074
aI1074
aI1074
aI1074
aI1074
aI1074
aI1074
aI1074
aI1074
aI1074
aI1074
aI1074
aI1074
aI1074
aI1074
aI1074
assS'./Data/SS-B2.csv'
p14
(dp15
g3
(lp16
I30
aI31
aI33
aI33
aI35
aI32
aI35
aI35
aI32
aI34
aI36
aI33
aI36
aI36
aI30
aI34
aI33
aI30
aI30
aI35
aI32
aI34
aI37
aI30
aI30
aI32
aI33
aI34
aI34
aI31
asg5
(lp17
I0
aI0
aI0
aI0
aI0
aI0
aI0
aI0
aI0
aI0
aI0
aI0
aI0
aI0
aI0
aI0
aI0
aI0
aI0
aI0
aI0
aI0
aI0
aI0
aI0
aI0
aI0
aI0
aI0
aI0
asg7
(lp18
I164
aI164
aI164
aI164
aI164
aI164
aI164
aI164
aI164
aI164
aI164
aI164
aI164
aI164
aI164
aI164
aI164
aI164
aI164
aI164
aI164
aI164
aI164
aI164
aI164
aI164
aI164
aI164
aI164
aI164
assS'./Data/SS-B1.csv'
p19
(dp20
g3
(lp21
I34
aI40
aI38
aI34
aI30
aI30
aI30
aI34
aI44
aI32
aI31
aI37
aI39
aI36
aI33
aI34
aI32
aI32
aI32
aI32
aI36
aI36
aI32
aI37
aI36
aI40
aI35
aI36
aI30
aI35
asg5
(lp22
I0
aI0
aI0
aI0
aI0
aI0
aI0
aI0
aI0
aI0
aI0
aI0
aI0
aI0
aI0
aI0
aI0
aI0
aI0
aI0
aI0
aI0
aI0
aI0
aI0
aI0
aI0
aI0
aI0
aI0
asg7
(lp23
I164
aI164
aI164
aI164
aI164
aI164
aI164
aI164
aI164
aI164
aI164
aI164
aI164
aI164
aI164
aI164
aI164
aI164
aI164
aI164
aI164
aI164
aI164
aI164
aI164
aI164
aI164
aI164
aI164
aI164
ass.