(dp0
S'./Data/SS-N2.csv'
p1
(dp2
S'evals'
p3
(lp4
I49
aI42
aI31
aI37
aI30
aI35
aI47
aI61
aI35
aI45
asS'rank_diff'
p5
(lp6
I0
aI0
aI554
aI0
aI12
aI12
aI0
aI773
aI0
aI0
asS'testsize'
p7
(lp8
I42929
aI42929
aI42929
aI42929
aI42929
aI42929
aI42929
aI42929
aI42929
aI42929
assS'./Data/SS-N1.csv'
p9
(dp10
g3
(lp11
I51
aI72
aI30
aI61
aI40
aI77
aI38
aI47
aI43
aI37
asg5
(lp12
I57
aI4
aI132
aI5
aI81
aI4
aI119
aI79
aI1098
aI59
asg7
(lp13
I42929
aI42929
aI42929
aI42929
aI42929
aI42929
aI42929
aI42929
aI42929
aI42929
assS'./Data/SS-M2.csv'
p14
(dp15
g3
(lp16
I31
aI72
aI30
aI43
aI31
aI30
aI37
aI48
aI34
aI30
asg5
(lp17
I5550
aI0
aI5479
aI1065
aI4662
aI697
aI6476
aI523
aI2949
aI4329
asg7
(lp18
I191488
aI191488
aI191488
aI191488
aI191488
aI191488
aI191488
aI191488
aI191488
aI191488
assS'./Data/SS-M1.csv'
p19
(dp20
g3
(lp21
I30
aI30
aI30
aI30
aI30
aI30
aI30
aI30
aI30
aI30
asg5
(lp22
I1
aI1
aI1
aI1
aI1
aI1
aI1
aI1
aI1
aI1
asg7
(lp23
I191488
aI191488
aI191488
aI191488
aI191488
aI191488
aI191488
aI191488
aI191488
aI191488
ass.