(dp0
S'./Data/SS-M2.csv'
p1
(dp2
S'evals'
p3
(lp4
I46
aI104
aI40
aI40
aI56
aI59
aI52
aI117
aI63
aI100
aI44
aI43
aI70
aI110
aI53
aI101
aI50
aI43
aI58
aI40
aI73
aI40
aI81
aI91
aI77
aI76
aI101
aI84
aI65
aI65
asS'rank_diff'
p5
(lp6
I440
aI53
aI19550
aI469
aI96
aI1989
aI3072
aI50
aI9
aI49
aI425
aI961
aI52
aI52
aI1069
aI0
aI495
aI85
aI128
aI949
aI322
aI759
aI51
aI7
aI186
aI2
aI189
aI53
aI90
aI0
asS'testsize'
p7
(lp8
I191488
aI191488
aI191488
aI191488
aI191488
aI191488
aI191488
aI191488
aI191488
aI191488
aI191488
aI191488
aI191488
aI191488
aI191488
aI191488
aI191488
aI191488
aI191488
aI191488
aI191488
aI191488
aI191488
aI191488
aI191488
aI191488
aI191488
aI191488
aI191488
aI191488
ass.