(dp0
S'./Data/SS-C2.csv'
p1
(dp2
S'evals'
p3
(lp4
I30
aI37
aI30
aI46
aI30
aI37
aI51
aI30
aI40
aI33
aI35
aI32
aI30
aI30
aI33
aI45
aI31
aI30
aI33
aI30
aI39
aI39
aI30
aI31
aI43
aI39
aI36
aI30
aI35
aI33
asS'rank_diff'
p5
(lp6
I17
aI46
aI22
aI3
aI57
aI2
aI2
aI14
aI24
aI0
aI8
aI12
aI0
aI5
aI1
aI1
aI7
aI28
aI7
aI7
aI0
aI8
aI29
aI1
aI4
aI5
aI0
aI17
aI1
aI28
asS'testsize'
p7
(lp8
I1209
aI1209
aI1209
aI1209
aI1209
aI1209
aI1209
aI1209
aI1209
aI1209
aI1209
aI1209
aI1209
aI1209
aI1209
aI1209
aI1209
aI1209
aI1209
aI1209
aI1209
aI1209
aI1209
aI1209
aI1209
aI1209
aI1209
aI1209
aI1209
aI1209
assS'./Data/SS-B1.csv'
p9
(dp10
g3
(lp11
I34
aI40
aI38
aI34
aI30
aI30
aI30
aI34
aI44
aI32
aI31
aI37
aI39
aI36
aI33
aI34
aI32
aI32
aI32
aI32
aI36
aI36
aI32
aI37
aI36
aI40
aI35
aI36
aI30
aI35
asg5
(lp12
I0
aI0
aI0
aI0
aI0
aI0
aI0
aI0
aI0
aI0
aI0
aI0
aI0
aI0
aI0
aI0
aI0
aI0
aI0
aI0
aI0
aI0
aI0
aI0
aI0
aI0
aI0
aI0
aI0
aI0
asg7
(lp13
I164
aI164
aI164
aI164
aI164
aI164
aI164
aI164
aI164
aI164
aI164
aI164
aI164
aI164
aI164
aI164
aI164
aI164
aI164
aI164
aI164
aI164
aI164
aI164
aI164
aI164
aI164
aI164
aI164
aI164
assS'./Data/SS-D2.csv'
p14
(dp15
g3
(lp16
I42
aI33
aI36
aI44
aI48
aI30
aI44
aI35
aI40
aI52
aI42
aI35
aI46
aI46
aI36
aI34
aI36
aI40
aI30
aI34
aI30
aI39
aI32
aI33
aI30
aI34
aI33
aI38
aI30
aI33
asg5
(lp17
I0
aI0
aI4
aI0
aI0
aI0
aI0
aI0
aI0
aI0
aI0
aI0
aI0
aI0
aI0
aI0
aI1
aI0
aI0
aI1
aI0
aI1
aI0
aI0
aI0
aI1
aI0
aI0
aI1
aI0
asg7
(lp18
I156
aI156
aI156
aI156
aI156
aI156
aI156
aI156
aI156
aI156
aI156
aI156
aI156
aI156
aI156
aI156
aI156
aI156
aI156
aI156
aI156
aI156
aI156
aI156
aI156
aI156
aI156
aI156
aI156
aI156
assS'./Data/SS-A1.csv'
p19
(dp20
g3
(lp21
I40
aI39
aI37
aI40
aI43
aI46
aI38
aI45
aI36
aI52
aI30
aI42
aI50
aI43
aI41
aI40
aI39
aI38
aI34
aI37
aI39
aI37
aI39
aI38
aI36
aI46
aI36
aI38
aI36
aI43
asg5
(lp22
I0
aI153
aI0
aI0
aI0
aI0
aI154
aI0
aI1
aI0
aI0
aI0
aI0
aI0
aI0
aI0
aI0
aI1
aI1
aI1
aI2
aI0
aI1
aI1
aI1
aI0
aI0
aI0
aI1
aI0
asg7
(lp23
I1074
aI1074
aI1074
aI1074
aI1074
aI1074
aI1074
aI1074
aI1074
aI1074
aI1074
aI1074
aI1074
aI1074
aI1074
aI1074
aI1074
aI1074
aI1074
aI1074
aI1074
aI1074
aI1074
aI1074
aI1074
aI1074
aI1074
aI1074
aI1074
aI1074
assS'./Data/SS-D1.csv'
p24
(dp25
g3
(lp26
I33
aI33
aI31
aI30
aI38
aI31
aI39
aI38
aI37
aI39
aI35
aI36
aI32
aI37
aI32
aI40
aI36
aI31
aI33
aI34
aI30
aI32
aI36
aI34
aI34
aI33
aI44
aI32
aI35
aI32
asg5
(lp27
I0
aI0
aI0
aI0
aI0
aI0
aI0
aI0
aI0
aI0
aI0
aI0
aI0
aI4
aI0
aI0
aI0
aI0
aI0
aI0
aI0
aI0
aI0
aI0
aI0
aI0
aI0
aI4
aI0
aI0
asg7
(lp28
I156
aI156
aI156
aI156
aI156
aI156
aI156
aI156
aI156
aI156
aI156
aI156
aI156
aI156
aI156
aI156
aI156
aI156
aI156
aI156
aI156
aI156
aI156
aI156
aI156
aI156
aI156
aI156
aI156
aI156
assS'./Data/SS-A2.csv'
p29
(dp30
g3
(lp31
I36
aI30
aI40
aI51
aI30
aI30
aI44
aI35
aI30
aI35
aI30
aI37
aI34
aI36
aI34
aI37
aI41
aI32
aI30
aI30
aI34
aI30
aI31
aI39
aI40
aI31
aI30
aI30
aI44
aI36
asg5
(lp32
I11
aI2
aI59
aI0
aI1
aI14
aI23
aI59
aI7
aI9
aI12
aI0
aI0
aI0
aI2
aI5
aI4
aI0
aI41
aI56
aI16
aI8
aI10
aI0
aI0
aI0
aI1
aI10
aI0
aI0
asg7
(lp33
I1074
aI1074
aI1074
aI1074
aI1074
aI1074
aI1074
aI1074
aI1074
aI1074
aI1074
aI1074
aI1074
aI1074
aI1074
aI1074
aI1074
aI1074
aI1074
aI1074
aI1074
aI1074
aI1074
aI1074
aI1074
aI1074
aI1074
aI1074
aI1074
aI1074
assS'./Data/SS-C1.csv'
p34
(dp35
g3
(lp36
I36
aI37
aI37
aI45
aI30
aI33
aI31
aI30
aI33
aI39
aI31
aI35
aI31
aI38
aI47
aI38
aI35
aI44
aI40
aI30
aI42
aI32
aI31
aI44
aI38
aI49
aI42
aI32
aI45
aI39
asg5
(lp37
I7
aI9
aI6
aI3
aI5
aI11
aI1
aI33
aI12
aI0
aI26
aI7
aI17
aI2
aI1
aI8
aI6
aI1
aI3
aI1
aI0
aI3
aI7
aI0
aI1
aI1
aI6
aI2
aI0
aI2
asg7
(lp38
I1209
aI1209
aI1209
aI1209
aI1209
aI1209
aI1209
aI1209
aI1209
aI1209
aI1209
aI1209
aI1209
aI1209
aI1209
aI1209
aI1209
aI1209
aI1209
aI1209
aI1209
aI1209
aI1209
aI1209
aI1209
aI1209
aI1209
aI1209
aI1209
aI1209
assS'./Data/SS-B2.csv'
p39
(dp40
g3
(lp41
I30
aI31
aI33
aI33
aI35
aI32
aI35
aI35
aI32
aI34
aI36
aI33
aI36
aI36
aI30
aI34
aI33
aI30
aI30
aI35
aI32
aI34
aI37
aI30
aI30
aI32
aI33
aI34
aI34
aI31
asg5
(lp42
I0
aI0
aI0
aI0
aI0
aI0
aI0
aI0
aI0
aI0
aI0
aI0
aI0
aI0
aI0
aI0
aI0
aI0
aI0
aI0
aI0
aI0
aI0
aI0
aI0
aI0
aI0
aI0
aI0
aI0
asg7
(lp43
I164
aI164
aI164
aI164
aI164
aI164
aI164
aI164
aI164
aI164
aI164
aI164
aI164
aI164
aI164
aI164
aI164
aI164
aI164
aI164
aI164
aI164
aI164
aI164
aI164
aI164
aI164
aI164
aI164
aI164
ass.