(dp0
S'./Data/SS-A1.csv'
p1
(dp2
S'evals'
p3
(lp4
I44
aI39
aI40
aI41
aI33
aI34
aI33
aI46
aI42
aI41
aI36
aI52
aI39
aI30
aI42
aI33
aI41
aI30
aI44
aI37
aI42
aI38
aI40
aI39
aI41
aI37
aI36
aI39
aI38
aI45
asS'rank_diff'
p5
(lp6
I0
aI0
aI0
aI0
aI1
aI1
aI1
aI0
aI1
aI1
aI1
aI0
aI1
aI1
aI0
aI1
aI6
aI1
aI0
aI0
aI0
aI1
aI0
aI0
aI1
aI0
aI0
aI0
aI0
aI0
asS'testsize'
p7
(lp8
I1074
aI1074
aI1074
aI1074
aI1074
aI1074
aI1074
aI1074
aI1074
aI1074
aI1074
aI1074
aI1074
aI1074
aI1074
aI1074
aI1074
aI1074
aI1074
aI1074
aI1074
aI1074
aI1074
aI1074
aI1074
aI1074
aI1074
aI1074
aI1074
aI1074
ass.