(dp0
S'./Data/SS-A1.csv'
p1
(dp2
S'evals'
p3
(lp4
I40
aI39
aI37
aI40
aI43
aI46
aI38
aI45
aI36
aI52
aI30
aI42
aI50
aI43
aI41
aI40
aI39
aI38
aI34
aI37
aI39
aI37
aI39
aI38
aI36
aI46
aI36
aI38
aI36
aI43
asS'rank_diff'
p5
(lp6
I0
aI153
aI0
aI0
aI0
aI0
aI154
aI0
aI1
aI0
aI0
aI0
aI0
aI0
aI0
aI0
aI0
aI1
aI1
aI1
aI2
aI0
aI1
aI1
aI1
aI0
aI0
aI0
aI1
aI0
asS'testsize'
p7
(lp8
I1074
aI1074
aI1074
aI1074
aI1074
aI1074
aI1074
aI1074
aI1074
aI1074
aI1074
aI1074
aI1074
aI1074
aI1074
aI1074
aI1074
aI1074
aI1074
aI1074
aI1074
aI1074
aI1074
aI1074
aI1074
aI1074
aI1074
aI1074
aI1074
aI1074
ass.