(dp0
S'./Data/SS-E1.csv'
p1
(dp2
S'evals'
p3
(lp4
I32
aI46
aI45
aI41
aI36
aI44
aI31
aI35
aI37
aI33
aI38
aI34
aI32
aI37
aI41
aI38
aI34
aI34
aI36
aI34
aI37
aI40
aI43
aI38
aI39
aI39
aI40
aI30
aI38
aI36
asS'rank_diff'
p5
(lp6
I0
aI0
aI0
aI0
aI0
aI0
aI0
aI0
aI0
aI0
aI0
aI0
aI0
aI0
aI0
aI0
aI0
aI0
aI0
aI0
aI0
aI0
aI1
aI0
aI0
aI0
aI0
aI0
aI0
aI0
asS'testsize'
p7
(lp8
I604
aI604
aI604
aI604
aI604
aI604
aI604
aI604
aI604
aI604
aI604
aI604
aI604
aI604
aI604
aI604
aI604
aI604
aI604
aI604
aI604
aI604
aI604
aI604
aI604
aI604
aI604
aI604
aI604
aI604
assS'./Data/SS-C2.csv'
p9
(dp10
g3
(lp11
I30
aI37
aI30
aI46
aI30
aI37
aI51
aI30
aI40
aI33
aI35
aI32
aI30
aI30
aI33
aI45
aI31
aI30
aI33
aI30
aI39
aI39
aI30
aI31
aI43
aI39
aI36
aI30
aI35
aI33
asg5
(lp12
I17
aI46
aI22
aI3
aI57
aI2
aI2
aI14
aI24
aI0
aI8
aI12
aI0
aI5
aI1
aI1
aI7
aI28
aI7
aI7
aI0
aI8
aI29
aI1
aI4
aI5
aI0
aI17
aI1
aI28
asg7
(lp13
I1209
aI1209
aI1209
aI1209
aI1209
aI1209
aI1209
aI1209
aI1209
aI1209
aI1209
aI1209
aI1209
aI1209
aI1209
aI1209
aI1209
aI1209
aI1209
aI1209
aI1209
aI1209
aI1209
aI1209
aI1209
aI1209
aI1209
aI1209
aI1209
aI1209
assS'./Data/SS-J2.csv'
p14
(dp15
g3
(lp16
I35
aI38
aI44
aI30
aI30
aI37
aI30
aI41
aI43
aI43
aI45
aI45
aI41
aI32
aI55
aI46
aI34
aI30
aI41
aI43
aI33
aI36
aI38
aI48
aI30
aI30
aI38
aI40
aI43
aI42
asg5
(lp17
I12
aI9
aI0
aI23
aI23
aI16
aI16
aI11
aI0
aI0
aI3
aI3
aI0
aI3
aI0
aI1
aI1
aI23
aI3
aI7
aI23
aI23
aI0
aI16
aI22
aI23
aI15
aI0
aI4
aI0
asg7
(lp18
I3072
aI3072
aI3072
aI3072
aI3072
aI3072
aI3072
aI3072
aI3072
aI3072
aI3072
aI3072
aI3072
aI3072
aI3072
aI3072
aI3072
aI3072
aI3072
aI3072
aI3072
aI3072
aI3072
aI3072
aI3072
aI3072
aI3072
aI3072
aI3072
aI3072
assS'./Data/SS-B1.csv'
p19
(dp20
g3
(lp21
I34
aI40
aI38
aI34
aI30
aI30
aI30
aI34
aI44
aI32
aI31
aI37
aI39
aI36
aI33
aI34
aI32
aI32
aI32
aI32
aI36
aI36
aI32
aI37
aI36
aI40
aI35
aI36
aI30
aI35
asg5
(lp22
I0
aI0
aI0
aI0
aI0
aI0
aI0
aI0
aI0
aI0
aI0
aI0
aI0
aI0
aI0
aI0
aI0
aI0
aI0
aI0
aI0
aI0
aI0
aI0
aI0
aI0
aI0
aI0
aI0
aI0
asg7
(lp23
I164
aI164
aI164
aI164
aI164
aI164
aI164
aI164
aI164
aI164
aI164
aI164
aI164
aI164
aI164
aI164
aI164
aI164
aI164
aI164
aI164
aI164
aI164
aI164
aI164
aI164
aI164
aI164
aI164
aI164
assS'./Data/SS-D2.csv'
p24
(dp25
g3
(lp26
I42
aI33
aI36
aI44
aI48
aI30
aI44
aI35
aI40
aI52
aI42
aI35
aI46
aI46
aI36
aI34
aI36
aI40
aI30
aI34
aI30
aI39
aI32
aI33
aI30
aI34
aI33
aI38
aI30
aI33
asg5
(lp27
I0
aI0
aI4
aI0
aI0
aI0
aI0
aI0
aI0
aI0
aI0
aI0
aI0
aI0
aI0
aI0
aI1
aI0
aI0
aI1
aI0
aI1
aI0
aI0
aI0
aI1
aI0
aI0
aI1
aI0
asg7
(lp28
I156
aI156
aI156
aI156
aI156
aI156
aI156
aI156
aI156
aI156
aI156
aI156
aI156
aI156
aI156
aI156
aI156
aI156
aI156
aI156
aI156
aI156
aI156
aI156
aI156
aI156
aI156
aI156
aI156
aI156
assS'./Data/SS-E2.csv'
p29
(dp30
g3
(lp31
I31
aI31
aI36
aI36
aI33
aI48
aI33
aI40
aI30
aI30
aI30
aI36
aI37
aI37
aI37
aI30
aI31
aI37
aI34
aI30
aI35
aI30
aI37
aI33
aI33
aI46
aI33
aI36
aI41
aI34
asg5
(lp32
I0
aI0
aI1
aI0
aI0
aI2
aI4
aI1
aI0
aI3
aI4
aI1
aI1
aI0
aI1
aI0
aI0
aI1
aI1
aI20
aI1
aI1
aI0
aI1
aI1
aI2
aI0
aI1
aI0
aI0
asg7
(lp33
I604
aI604
aI604
aI604
aI604
aI604
aI604
aI604
aI604
aI604
aI604
aI604
aI604
aI604
aI604
aI604
aI604
aI604
aI604
aI604
aI604
aI604
aI604
aI604
aI604
aI604
aI604
aI604
aI604
aI604
assS'./Data/SS-A1.csv'
p34
(dp35
g3
(lp36
I40
aI39
aI37
aI40
aI43
aI46
aI38
aI45
aI36
aI52
aI30
aI42
aI50
aI43
aI41
aI40
aI39
aI38
aI34
aI37
aI39
aI37
aI39
aI38
aI36
aI46
aI36
aI38
aI36
aI43
asg5
(lp37
I0
aI153
aI0
aI0
aI0
aI0
aI154
aI0
aI1
aI0
aI0
aI0
aI0
aI0
aI0
aI0
aI0
aI1
aI1
aI1
aI2
aI0
aI1
aI1
aI1
aI0
aI0
aI0
aI1
aI0
asg7
(lp38
I1074
aI1074
aI1074
aI1074
aI1074
aI1074
aI1074
aI1074
aI1074
aI1074
aI1074
aI1074
aI1074
aI1074
aI1074
aI1074
aI1074
aI1074
aI1074
aI1074
aI1074
aI1074
aI1074
aI1074
aI1074
aI1074
aI1074
aI1074
aI1074
aI1074
assS'./Data/SS-D1.csv'
p39
(dp40
g3
(lp41
I33
aI33
aI31
aI30
aI38
aI31
aI39
aI38
aI37
aI39
aI35
aI36
aI32
aI37
aI32
aI40
aI36
aI31
aI33
aI34
aI30
aI32
aI36
aI34
aI34
aI33
aI44
aI32
aI35
aI32
asg5
(lp42
I0
aI0
aI0
aI0
aI0
aI0
aI0
aI0
aI0
aI0
aI0
aI0
aI0
aI4
aI0
aI0
aI0
aI0
aI0
aI0
aI0
aI0
aI0
aI0
aI0
aI0
aI0
aI4
aI0
aI0
asg7
(lp43
I156
aI156
aI156
aI156
aI156
aI156
aI156
aI156
aI156
aI156
aI156
aI156
aI156
aI156
aI156
aI156
aI156
aI156
aI156
aI156
aI156
aI156
aI156
aI156
aI156
aI156
aI156
aI156
aI156
aI156
assS'./Data/SS-J1.csv'
p44
(dp45
g3
(lp46
I42
aI55
aI45
aI81
aI47
aI34
aI45
aI39
aI39
aI49
aI58
aI43
aI42
aI50
aI38
aI32
aI46
aI30
aI40
aI42
aI46
aI65
aI38
aI37
aI44
aI43
aI37
aI47
aI32
aI49
asg5
(lp47
I0
aI55
aI1
aI2
aI2
aI9
aI0
aI58
aI0
aI13
aI0
aI1
aI0
aI1
aI1
aI2
aI1
aI52
aI1
aI0
aI58
aI57
aI279
aI0
aI0
aI0
aI0
aI24
aI57
aI0
asg7
(lp48
I3072
aI3072
aI3072
aI3072
aI3072
aI3072
aI3072
aI3072
aI3072
aI3072
aI3072
aI3072
aI3072
aI3072
aI3072
aI3072
aI3072
aI3072
aI3072
aI3072
aI3072
aI3072
aI3072
aI3072
aI3072
aI3072
aI3072
aI3072
aI3072
aI3072
assS'./Data/SS-A2.csv'
p49
(dp50
g3
(lp51
I36
aI30
aI40
aI51
aI30
aI30
aI44
aI35
aI30
aI35
aI30
aI37
aI34
aI36
aI34
aI37
aI41
aI32
aI30
aI30
aI34
aI30
aI31
aI39
aI40
aI31
aI30
aI30
aI44
aI36
asg5
(lp52
I11
aI2
aI59
aI0
aI1
aI14
aI23
aI59
aI7
aI9
aI12
aI0
aI0
aI0
aI2
aI5
aI4
aI0
aI41
aI56
aI16
aI8
aI10
aI0
aI0
aI0
aI1
aI10
aI0
aI0
asg7
(lp53
I1074
aI1074
aI1074
aI1074
aI1074
aI1074
aI1074
aI1074
aI1074
aI1074
aI1074
aI1074
aI1074
aI1074
aI1074
aI1074
aI1074
aI1074
aI1074
aI1074
aI1074
aI1074
aI1074
aI1074
aI1074
aI1074
aI1074
aI1074
aI1074
aI1074
assS'./Data/SS-I2.csv'
p54
(dp55
g3
(lp56
I51
aI52
aI30
aI38
aI48
aI36
aI36
aI43
aI43
aI45
aI60
aI33
aI38
aI39
aI47
aI51
aI39
aI44
aI36
aI40
aI49
aI49
aI40
aI34
aI41
aI42
aI48
aI31
aI49
aI38
asg5
(lp57
I0
aI0
aI1
aI0
aI0
aI0
aI5
aI0
aI0
aI0
aI0
aI58
aI0
aI0
aI0
aI0
aI1
aI0
aI4
aI0
aI0
aI0
aI0
aI0
aI0
aI0
aI0
aI2
aI0
aI4
asg7
(lp58
I864
aI864
aI864
aI864
aI864
aI864
aI864
aI864
aI864
aI864
aI864
aI864
aI864
aI864
aI864
aI864
aI864
aI864
aI864
aI864
aI864
aI864
aI864
aI864
aI864
aI864
aI864
aI864
aI864
aI864
assS'./Data/SS-F1.csv'
p59
(dp60
g3
(lp61
I33
aI31
aI35
aI33
aI38
aI34
aI34
aI36
aI31
aI35
aI33
aI36
aI32
aI30
aI36
aI33
aI36
aI30
aI31
aI38
aI32
aI40
aI30
aI37
aI33
aI34
aI36
aI31
aI30
aI32
asg5
(lp62
I0
aI0
aI0
aI5
aI0
aI0
aI0
aI0
aI0
aI0
aI4
aI0
aI5
aI0
aI5
aI0
aI0
aI3
aI4
aI0
aI0
aI0
aI0
aI0
aI0
aI0
aI0
aI0
aI0
aI0
asg7
(lp63
I156
aI156
aI156
aI156
aI156
aI156
aI156
aI156
aI156
aI156
aI156
aI156
aI156
aI156
aI156
aI156
aI156
aI156
aI156
aI156
aI156
aI156
aI156
aI156
aI156
aI156
aI156
aI156
aI156
aI156
assS'./Data/SS-H2.csv'
p64
(dp65
g3
(lp66
I32
aI34
aI30
aI30
aI38
aI34
aI30
aI38
aI30
aI35
aI32
aI31
aI34
aI30
aI33
aI36
aI33
aI38
aI35
aI35
aI33
aI32
aI33
aI34
aI37
aI30
aI34
aI33
aI30
aI35
asg5
(lp67
I0
aI0
aI0
aI0
aI0
aI0
aI0
aI0
aI0
aI0
aI0
aI0
aI0
aI0
aI0
aI0
aI0
aI0
aI0
aI0
aI0
aI0
aI0
aI0
aI0
aI0
aI0
aI0
aI0
aI0
asg7
(lp68
I207
aI207
aI207
aI207
aI207
aI207
aI207
aI207
aI207
aI207
aI207
aI207
aI207
aI207
aI207
aI207
aI207
aI207
aI207
aI207
aI207
aI207
aI207
aI207
aI207
aI207
aI207
aI207
aI207
aI207
assS'./Data/SS-G1.csv'
p69
(dp70
g3
(lp71
I32
aI42
aI37
aI40
aI38
aI41
aI36
aI33
aI31
aI32
aI36
aI33
aI32
aI31
aI32
aI30
aI40
aI37
aI35
aI33
aI37
aI30
aI30
aI33
aI30
aI38
aI31
aI31
aI60
aI30
asg5
(lp72
I1
aI2
aI0
aI0
aI0
aI0
aI0
aI0
aI0
aI0
aI0
aI3
aI0
aI0
aI0
aI0
aI0
aI0
aI3
aI0
aI0
aI0
aI0
aI0
aI0
aI0
aI3
aI0
aI0
aI0
asg7
(lp73
I156
aI156
aI156
aI156
aI156
aI156
aI156
aI156
aI156
aI156
aI156
aI156
aI156
aI156
aI156
aI156
aI156
aI156
aI156
aI156
aI156
aI156
aI156
aI156
aI156
aI156
aI156
aI156
aI156
aI156
assS'./Data/SS-F2.csv'
p74
(dp75
g3
(lp76
I37
aI38
aI30
aI37
aI34
aI39
aI37
aI30
aI37
aI32
aI35
aI32
aI33
aI37
aI39
aI36
aI32
aI39
aI38
aI34
aI30
aI38
aI37
aI39
aI39
aI35
aI38
aI34
aI39
aI40
asg5
(lp77
I1
aI0
aI0
aI0
aI0
aI0
aI0
aI0
aI0
aI0
aI0
aI0
aI0
aI0
aI0
aI0
aI0
aI0
aI0
aI0
aI0
aI0
aI0
aI0
aI0
aI0
aI0
aI1
aI0
aI0
asg7
(lp78
I156
aI156
aI156
aI156
aI156
aI156
aI156
aI156
aI156
aI156
aI156
aI156
aI156
aI156
aI156
aI156
aI156
aI156
aI156
aI156
aI156
aI156
aI156
aI156
aI156
aI156
aI156
aI156
aI156
aI156
assS'./Data/SS-H1.csv'
p79
(dp80
g3
(lp81
I36
aI32
aI36
aI30
aI37
aI32
aI33
aI32
aI31
aI39
aI30
aI30
aI32
aI34
aI39
aI35
aI32
aI40
aI37
aI30
aI35
aI30
aI30
aI30
aI40
aI35
aI38
aI33
aI36
aI34
asg5
(lp82
I0
aI0
aI0
aI0
aI0
aI0
aI0
aI0
aI0
aI0
aI0
aI0
aI0
aI0
aI0
aI0
aI0
aI0
aI0
aI0
aI0
aI0
aI0
aI0
aI0
aI0
aI0
aI0
aI0
aI0
asg7
(lp83
I207
aI207
aI207
aI207
aI207
aI207
aI207
aI207
aI207
aI207
aI207
aI207
aI207
aI207
aI207
aI207
aI207
aI207
aI207
aI207
aI207
aI207
aI207
aI207
aI207
aI207
aI207
aI207
aI207
aI207
assS'./Data/SS-C1.csv'
p84
(dp85
g3
(lp86
I36
aI37
aI37
aI45
aI30
aI33
aI31
aI30
aI33
aI39
aI31
aI35
aI31
aI38
aI47
aI38
aI35
aI44
aI40
aI30
aI42
aI32
aI31
aI44
aI38
aI49
aI42
aI32
aI45
aI39
asg5
(lp87
I7
aI9
aI6
aI3
aI5
aI11
aI1
aI33
aI12
aI0
aI26
aI7
aI17
aI2
aI1
aI8
aI6
aI1
aI3
aI1
aI0
aI3
aI7
aI0
aI1
aI1
aI6
aI2
aI0
aI2
asg7
(lp88
I1209
aI1209
aI1209
aI1209
aI1209
aI1209
aI1209
aI1209
aI1209
aI1209
aI1209
aI1209
aI1209
aI1209
aI1209
aI1209
aI1209
aI1209
aI1209
aI1209
aI1209
aI1209
aI1209
aI1209
aI1209
aI1209
aI1209
aI1209
aI1209
aI1209
assS'./Data/SS-B2.csv'
p89
(dp90
g3
(lp91
I30
aI31
aI33
aI33
aI35
aI32
aI35
aI35
aI32
aI34
aI36
aI33
aI36
aI36
aI30
aI34
aI33
aI30
aI30
aI35
aI32
aI34
aI37
aI30
aI30
aI32
aI33
aI34
aI34
aI31
asg5
(lp92
I0
aI0
aI0
aI0
aI0
aI0
aI0
aI0
aI0
aI0
aI0
aI0
aI0
aI0
aI0
aI0
aI0
aI0
aI0
aI0
aI0
aI0
aI0
aI0
aI0
aI0
aI0
aI0
aI0
aI0
asg7
(lp93
I164
aI164
aI164
aI164
aI164
aI164
aI164
aI164
aI164
aI164
aI164
aI164
aI164
aI164
aI164
aI164
aI164
aI164
aI164
aI164
aI164
aI164
aI164
aI164
aI164
aI164
aI164
aI164
aI164
aI164
assS'./Data/SS-G2.csv'
p94
(dp95
g3
(lp96
I40
aI32
aI37
aI31
aI30
aI37
aI34
aI34
aI35
aI34
aI36
aI34
aI33
aI44
aI39
aI35
aI35
aI38
aI32
aI30
aI40
aI30
aI38
aI43
aI39
aI32
aI30
aI36
aI36
aI39
asg5
(lp97
I0
aI0
aI0
aI0
aI0
aI0
aI0
aI0
aI0
aI0
aI0
aI0
aI0
aI0
aI0
aI1
aI1
aI0
aI0
aI0
aI0
aI3
aI0
aI0
aI0
aI0
aI0
aI1
aI0
aI0
asg7
(lp98
I156
aI156
aI156
aI156
aI156
aI156
aI156
aI156
aI156
aI156
aI156
aI156
aI156
aI156
aI156
aI156
aI156
aI156
aI156
aI156
aI156
aI156
aI156
aI156
aI156
aI156
aI156
aI156
aI156
aI156
assS'./Data/SS-I1.csv'
p99
(dp100
g3
(lp101
I42
aI32
aI47
aI30
aI32
aI48
aI43
aI33
aI56
aI46
aI51
aI50
aI32
aI41
aI42
aI31
aI46
aI39
aI37
aI60
aI30
aI32
aI39
aI38
aI38
aI38
aI35
aI30
aI39
aI31
asg5
(lp102
I1
aI2
aI3
aI21
aI5
aI2
aI2
aI73
aI0
aI1
aI5
aI2
aI3
aI2
aI2
aI5
aI2
aI7
aI2
aI1
aI0
aI2
aI5
aI3
aI1
aI2
aI38
aI0
aI1
aI3
asg7
(lp103
I864
aI864
aI864
aI864
aI864
aI864
aI864
aI864
aI864
aI864
aI864
aI864
aI864
aI864
aI864
aI864
aI864
aI864
aI864
aI864
aI864
aI864
aI864
aI864
aI864
aI864
aI864
aI864
aI864
aI864
ass.