(dp0
S'./Data/SS-A2.csv'
p1
(dp2
S'evals'
p3
(lp4
I33
aI38
aI53
aI36
aI49
aI30
aI31
aI30
aI30
aI31
aI40
aI32
aI37
aI30
aI43
aI30
aI44
aI37
aI35
aI34
aI48
aI30
aI30
aI34
aI30
aI36
aI32
aI30
aI40
aI39
asS'rank_diff'
p5
(lp6
I32
aI15
aI0
aI31
aI0
aI0
aI11
aI23
aI9
aI4
aI0
aI42
aI12
aI56
aI0
aI20
aI3
aI13
aI26
aI8
aI1
aI23
aI2
aI2
aI99
aI2
aI4
aI13
aI2
aI9
asS'testsize'
p7
(lp8
I1074
aI1074
aI1074
aI1074
aI1074
aI1074
aI1074
aI1074
aI1074
aI1074
aI1074
aI1074
aI1074
aI1074
aI1074
aI1074
aI1074
aI1074
aI1074
aI1074
aI1074
aI1074
aI1074
aI1074
aI1074
aI1074
aI1074
aI1074
aI1074
aI1074
assS'./Data/SS-A1.csv'
p9
(dp10
g3
(lp11
I44
aI39
aI40
aI41
aI33
aI34
aI33
aI46
aI42
aI41
aI36
aI52
aI39
aI30
aI42
aI33
aI41
aI30
aI44
aI37
aI42
aI38
aI40
aI39
aI41
aI37
aI36
aI39
aI38
aI45
asg5
(lp12
I0
aI0
aI0
aI0
aI1
aI1
aI1
aI0
aI1
aI1
aI1
aI0
aI1
aI1
aI0
aI1
aI6
aI1
aI0
aI0
aI0
aI1
aI0
aI0
aI1
aI0
aI0
aI0
aI0
aI0
asg7
(lp13
I1074
aI1074
aI1074
aI1074
aI1074
aI1074
aI1074
aI1074
aI1074
aI1074
aI1074
aI1074
aI1074
aI1074
aI1074
aI1074
aI1074
aI1074
aI1074
aI1074
aI1074
aI1074
aI1074
aI1074
aI1074
aI1074
aI1074
aI1074
aI1074
aI1074
assS'./Data/SS-B1.csv'
p14
(dp15
g3
(lp16
I35
aI35
aI44
aI35
aI39
aI36
aI38
aI32
aI37
aI33
aI37
aI30
aI34
aI34
aI32
aI43
aI41
aI35
aI40
aI37
aI30
aI34
aI33
aI34
aI32
aI30
aI34
aI35
aI32
aI32
asg5
(lp17
I0
aI0
aI0
aI0
aI0
aI0
aI0
aI0
aI0
aI0
aI0
aI0
aI0
aI0
aI0
aI0
aI0
aI0
aI0
aI0
aI0
aI0
aI0
aI0
aI0
aI0
aI0
aI0
aI0
aI0
asg7
(lp18
I164
aI164
aI164
aI164
aI164
aI164
aI164
aI164
aI164
aI164
aI164
aI164
aI164
aI164
aI164
aI164
aI164
aI164
aI164
aI164
aI164
aI164
aI164
aI164
aI164
aI164
aI164
aI164
aI164
aI164
ass.