(dp0
S'./Data/SS-N1.csv'
p1
(dp2
S'evals'
p3
(lp4
I40
aI40
aI66
aI67
aI48
aI98
aI86
aI42
aI63
aI76
aI84
aI78
aI46
aI78
aI103
aI62
aI40
aI46
aI81
aI58
aI77
aI90
aI76
aI81
aI54
aI71
aI41
aI85
aI74
aI46
asS'rank_diff'
p5
(lp6
I323
aI89
aI4
aI3
aI27
aI4
aI5
aI27
aI3
aI7
aI5
aI5
aI178
aI5
aI5
aI5
aI91
aI84
aI4
aI19
aI3
aI24
aI30
aI5
aI34
aI0
aI49
aI5
aI5
aI8
asS'testsize'
p7
(lp8
I42929
aI42929
aI42929
aI42929
aI42929
aI42929
aI42929
aI42929
aI42929
aI42929
aI42929
aI42929
aI42929
aI42929
aI42929
aI42929
aI42929
aI42929
aI42929
aI42929
aI42929
aI42929
aI42929
aI42929
aI42929
aI42929
aI42929
aI42929
aI42929
aI42929
assS'./Data/SS-M2.csv'
p9
(dp10
g3
(lp11
I46
aI104
aI40
aI40
aI56
aI59
aI52
aI117
aI63
aI100
aI44
aI43
aI70
aI110
aI53
aI101
aI50
aI43
aI58
aI40
aI73
aI40
aI81
aI91
aI77
aI76
aI101
aI84
aI65
aI65
asg5
(lp12
I440
aI53
aI19550
aI469
aI96
aI1989
aI3072
aI50
aI9
aI49
aI425
aI961
aI52
aI52
aI1069
aI0
aI495
aI85
aI128
aI949
aI322
aI759
aI51
aI7
aI186
aI2
aI189
aI53
aI90
aI0
asg7
(lp13
I191488
aI191488
aI191488
aI191488
aI191488
aI191488
aI191488
aI191488
aI191488
aI191488
aI191488
aI191488
aI191488
aI191488
aI191488
aI191488
aI191488
aI191488
aI191488
aI191488
aI191488
aI191488
aI191488
aI191488
aI191488
aI191488
aI191488
aI191488
aI191488
aI191488
ass.