(dp0
S'./Data/rs-6d-c3_obj2.csv'
p1
(lp2
I1640
aI1367
aI1490
aI1296
aI1582
aI1961
aI1458
aI1757
aI1270
aI1369
aI1572
aI1335
aI1734
aI1555
aI1635
aI1650
aI1408
aI1352
aI1659
aI1678
asS'./Data/rs-6d-c3_obj1.csv'
p3
(lp4
I1468
aI1422
aI1685
aI1278
aI1651
aI1505
aI1623
aI1580
aI1464
aI1503
aI1353
aI1250
aI1682
aI2313
aI1315
aI1636
aI1494
aI1626
aI1454
aI1387
asS'./Data/wc-6d-c1-obj1.csv'
p5
(lp6
I876
aI1006
aI924
aI889
aI1061
aI1071
aI909
aI947
aI1088
aI1011
aI985
aI1088
aI919
aI814
aI1223
aI1015
aI1050
aI981
aI934
aI926
asS'./Data/wc+rs-3d-c4-obj2.csv'
p7
(lp8
I126
aI126
aI126
aI126
aI126
aI126
aI126
aI126
aI126
aI126
aI126
aI126
aI126
aI126
aI126
aI126
aI126
aI126
aI126
aI126
asS'./Data/sol-6d-c2-obj2.csv'
p9
(lp10
I1726
aI1726
aI1726
aI1726
aI1726
aI1726
aI1726
aI1726
aI1726
aI1726
aI1726
aI1726
aI1726
aI1726
aI1726
aI1726
aI1726
aI1726
aI1726
aI1726
asS'./Data/lrzip.csv'
p11
(lp12
I179
aI189
aI216
aI202
aI250
aI187
aI189
aI174
aI154
aI268
aI181
aI169
aI178
aI232
aI252
aI268
aI147
aI158
aI228
aI170
asS'./Data/WGet.csv'
p13
(lp14
I57
aI61
aI87
aI67
aI66
aI76
aI60
aI58
aI61
aI62
aI59
aI57
aI75
aI59
aI69
aI64
aI74
aI58
aI60
aI58
asS'./Data/wc+wc-3d-c4-obj1.csv'
p15
(lp16
I126
aI126
aI126
aI126
aI90
aI105
aI126
aI117
aI126
aI116
aI108
aI126
aI103
aI126
aI126
aI126
aI126
aI126
aI109
aI126
asS'./Data/Apache_AllMeasurements.csv'
p17
(lp18
I59
aI65
aI72
aI61
aI61
aI59
aI59
aI60
aI61
aI66
aI73
aI76
aI63
aI70
aI72
aI73
aI59
aI82
aI69
aI75
asS'./Data/sort_256_obj2.csv'
p19
(lp20
I74
aI73
aI68
aI72
aI70
aI66
aI83
aI69
aI103
aI75
aI73
aI65
aI92
aI65
aI105
aI65
aI68
aI68
aI73
aI81
asS'./Data/BDBC_AllMeasurements.csv'
p21
(lp22
I565
aI545
aI559
aI556
aI570
aI546
aI571
aI575
aI570
aI559
aI557
aI565
aI594
aI592
aI565
aI564
aI570
aI550
aI567
aI558
asS'./Data/wc+sol-3d-c4-obj2.csv'
p23
(lp24
I126
aI126
aI126
aI126
aI126
aI126
aI126
aI126
aI126
aI126
aI126
aI126
aI124
aI126
aI126
aI126
aI126
aI126
aI126
aI126
asS'./Data/sol-6d-c2-obj1.csv'
p25
(lp26
I1728
aI1728
aI1728
aI1728
aI1728
aI1728
aI1728
aI1728
aI1728
aI1728
aI1728
aI1728
aI1728
aI1728
aI1728
aI1728
aI1728
aI1728
aI1728
aI1728
asS'./Data/X264_AllMeasurements.csv'
p27
(lp28
I251
aI257
aI252
aI252
aI253
aI251
aI251
aI253
aI251
aI255
aI261
aI252
aI261
aI252
aI252
aI262
aI259
aI251
aI253
aI252
asS'./Data/wc+rs-3d-c4-obj1.csv'
p29
(lp30
I107
aI126
aI126
aI89
aI88
aI126
aI104
aI83
aI91
aI105
aI126
aI95
aI85
aI97
aI126
aI116
aI126
aI126
aI82
aI99
asS'./Data/SQL_AllMeasurements.csv'
p31
(lp32
I950
aI950
aI950
aI950
aI950
aI950
aI950
aI950
aI950
aI950
aI950
aI950
aI950
aI950
aI950
aI950
aI950
aI950
aI950
aI950
asS'./Data/wc+sol-3d-c4-obj1.csv'
p33
(lp34
I103
aI123
aI126
aI112
aI96
aI81
aI126
aI110
aI106
aI111
aI96
aI126
aI84
aI101
aI97
aI126
aI126
aI124
aI101
aI126
asS'./Data/wc-6d-c1-obj2.csv'
p35
(lp36
I996
aI892
aI932
aI952
aI1043
aI965
aI952
aI978
aI928
aI906
aI873
aI773
aI1017
aI983
aI1017
aI851
aI969
aI804
aI1215
aI1057
asS'./Data/HSMGP_num.csv'
p37
(lp38
I1076
aI1246
aI1131
aI1136
aI1122
aI1117
aI1125
aI1265
aI1106
aI1205
aI1111
aI1124
aI1220
aI1056
aI1121
aI1118
aI1084
aI1085
aI1143
aI1184
asS'./Data/wc-3d-c4_obj2.csv'
p39
(lp40
I462
aI462
aI462
aI462
aI266
aI462
aI462
aI462
aI462
aI462
aI462
aI462
aI462
aI462
aI462
aI462
aI346
aI462
aI462
aI462
asS'./Data/Dune.csv'
p41
(lp42
I582
aI654
aI513
aI548
aI585
aI559
aI528
aI554
aI552
aI507
aI593
aI583
aI572
aI623
aI682
aI593
aI587
aI561
aI657
aI593
asS'./Data/wc+wc-3d-c4-obj2.csv'
p43
(lp44
I126
aI126
aI126
aI126
aI126
aI126
aI126
aI126
aI126
aI126
aI126
aI126
aI126
aI126
aI126
aI126
aI126
aI126
aI126
aI126
as.