(dp0
S'./Data/rs-6d-c3_obj2.csv'
p1
(lp2
I15
aI1
aI5
aI4
aI13
aI4
aI0
aI2
aI2
aI0
aI0
aI0
aI0
aI1
aI3
aI3
aI0
aI0
aI0
aI5
asS'./Data/rs-6d-c3_obj1.csv'
p3
(lp4
I0
aI0
aI0
aI2
aI1
aI0
aI0
aI0
aI0
aI0
aI0
aI0
aI0
aI0
aI0
aI0
aI0
aI0
aI0
aI0
asS'./Data/wc-6d-c1-obj1.csv'
p5
(lp6
I0
aI0
aI0
aI0
aI3
aI1
aI0
aI0
aI1
aI1
aI0
aI0
aI0
aI0
aI1
aI1
aI1
aI0
aI0
aI1
asS'./Data/wc+rs-3d-c4-obj2.csv'
p7
(lp8
I0
aI0
aI0
aI0
aI0
aI0
aI0
aI0
aI0
aI0
aI0
aI0
aI0
aI0
aI0
aI0
aI0
aI0
aI0
aI0
asS'./Data/sol-6d-c2-obj2.csv'
p9
(lp10
I4
aI0
aI0
aI0
aI1
aI0
aI0
aI0
aI0
aI0
aI0
aI1
aI0
aI0
aI0
aI1
aI0
aI0
aI0
aI0
asS'./Data/lrzip.csv'
p11
(lp12
I0
aI0
aI0
aI0
aI0
aI0
aI0
aI0
aI0
aI0
aI0
aI0
aI0
aI1
aI1
aI1
aI0
aI0
aI0
aI0
asS'./Data/WGet.csv'
p13
(lp14
I3
aI1
aI0
aI1
aI6
aI5
aI8
aI4
aI18
aI0
aI0
aI6
aI0
aI10
aI4
aI1
aI19
aI1
aI1
aI7
asS'./Data/wc+wc-3d-c4-obj1.csv'
p15
(lp16
I0
aI0
aI0
aI0
aI0
aI0
aI0
aI0
aI0
aI0
aI0
aI0
aI0
aI0
aI0
aI0
aI0
aI0
aI0
aI0
asS'./Data/Apache_AllMeasurements.csv'
p17
(lp18
I0
aI0
aI0
aI1
aI0
aI0
aI0
aI0
aI2
aI0
aI0
aI0
aI0
aI0
aI0
aI0
aI3
aI0
aI0
aI0
asS'./Data/sort_256_obj2.csv'
p19
(lp20
I0
aI0
aI0
aI0
aI0
aI0
aI0
aI0
aI0
aI0
aI0
aI0
aI0
aI0
aI0
aI1
aI0
aI0
aI0
aI0
asS'./Data/BDBC_AllMeasurements.csv'
p21
(lp22
I0
aI0
aI1
aI0
aI3
aI24
aI47
aI31
aI0
aI6
aI2
aI0
aI1
aI1
aI1
aI0
aI1
aI109
aI72
aI1
asS'./Data/wc+sol-3d-c4-obj2.csv'
p23
(lp24
I0
aI0
aI0
aI0
aI0
aI0
aI0
aI0
aI0
aI0
aI0
aI0
aI0
aI0
aI0
aI0
aI0
aI0
aI0
aI0
asS'./Data/sol-6d-c2-obj1.csv'
p25
(lp26
I4
aI3
aI1
aI1
aI2
aI2
aI2
aI0
aI2
aI1
aI3
aI2
aI2
aI3
aI2
aI6
aI1
aI4
aI13
aI2
asS'./Data/X264_AllMeasurements.csv'
p27
(lp28
I0
aI2
aI0
aI1
aI0
aI1
aI0
aI2
aI0
aI10
aI3
aI0
aI9
aI20
aI0
aI7
aI1
aI2
aI1
aI2
asS'./Data/wc+rs-3d-c4-obj1.csv'
p29
(lp30
I0
aI0
aI0
aI0
aI0
aI0
aI0
aI0
aI0
aI0
aI0
aI0
aI0
aI0
aI0
aI0
aI0
aI0
aI0
aI0
asS'./Data/SQL_AllMeasurements.csv'
p31
(lp32
I0
aI16
aI0
aI18
aI0
aI26
aI0
aI0
aI15
aI9
aI8
aI0
aI15
aI0
aI32
aI1
aI0
aI5
aI2
aI21
asS'./Data/wc+sol-3d-c4-obj1.csv'
p33
(lp34
I0
aI0
aI0
aI0
aI0
aI0
aI0
aI0
aI0
aI0
aI0
aI0
aI0
aI0
aI0
aI0
aI0
aI0
aI0
aI0
asS'./Data/wc-6d-c1-obj2.csv'
p35
(lp36
I0
aI0
aI0
aI0
aI0
aI0
aI0
aI0
aI1
aI0
aI0
aI0
aI0
aI0
aI0
aI0
aI0
aI0
aI0
aI0
asS'./Data/HSMGP_num.csv'
p37
(lp38
I3
aI0
aI0
aI0
aI2
aI10
aI0
aI0
aI0
aI0
aI0
aI0
aI0
aI0
aI1
aI0
aI0
aI0
aI2
aI0
asS'./Data/wc-3d-c4_obj2.csv'
p39
(lp40
I0
aI1
aI0
aI2
aI0
aI1
aI0
aI2
aI1
aI1
aI2
aI0
aI0
aI0
aI0
aI0
aI0
aI0
aI0
aI0
asS'./Data/Dune.csv'
p41
(lp42
I7
aI16
aI0
aI2
aI14
aI0
aI0
aI2
aI2
aI0
aI5
aI37
aI31
aI2
aI6
aI6
aI1
aI12
aI2
aI3
asS'./Data/wc+wc-3d-c4-obj2.csv'
p43
(lp44
I0
aI0
aI0
aI0
aI0
aI0
aI0
aI0
aI0
aI0
aI0
aI0
aI0
aI0
aI0
aI0
aI0
aI0
aI0
aI0
as.