(dp0
S'./Data/SS-O2.csv'
p1
(dp2
S'evals'
p3
(lp4
I15655
aI14605
aI13905
aI16705
aI15655
aI16205
aI14955
aI19955
aI16405
aI15605
aI14555
aI13905
aI15555
aI16305
aI13805
aI16755
aI15405
aI17405
aI14505
aI13605
aI15655
aI17155
aI15355
aI17255
aI14305
aI16155
aI14055
aI16105
aI17555
aI15155
asS'rank_diff'
p5
(lp6
I0
aI2
aI0
aI50
aI26
aI0
aI0
aI0
aI0
aI0
aI51
aI30
aI39
aI0
aI0
aI0
aI28
aI0
aI66
aI28
aI0
aI28
aI0
aI0
aI0
aI0
aI0
aI1
aI0
aI0
asS'testsize'
p7
(lp8
I52339
aI52339
aI52339
aI52339
aI52339
aI52339
aI52339
aI52339
aI52339
aI52339
aI52339
aI52339
aI52339
aI52339
aI52339
aI52339
aI52339
aI52339
aI52339
aI52339
aI52339
aI52339
aI52339
aI52339
aI52339
aI52339
aI52339
aI52339
aI52339
aI52339
ass.