(dp0
S'./Data/SS-M1.csv'
p1
(dp2
S'evals'
p3
(lp4
I49242
aI58142
aI50842
aI50742
aI52092
aI54042
aI49492
aI49542
aI51692
aI50792
aI49092
aI49442
aI49942
aI48992
aI51842
aI48642
aI49992
aI49592
aI49592
aI51592
aI51192
aI50392
aI49542
aI50092
aI52742
aI49242
aI50092
aI49192
aI52892
aI48642
asS'rank_diff'
p5
(lp6
I0
aI0
aI0
aI0
aI0
aI0
aI0
aI1
aI0
aI0
aI0
aI0
aI0
aI0
aI0
aI13
aI0
aI0
aI0
aI0
aI0
aI0
aI0
aI0
aI0
aI0
aI0
aI0
aI0
aI0
asS'testsize'
p7
(lp8
I191488
aI191488
aI191488
aI191488
aI191488
aI191488
aI191488
aI191488
aI191488
aI191488
aI191488
aI191488
aI191488
aI191488
aI191488
aI191488
aI191488
aI191488
aI191488
aI191488
aI191488
aI191488
aI191488
aI191488
aI191488
aI191488
aI191488
aI191488
aI191488
aI191488
ass.