(dp0
S'./Data/SS-A1.csv'
p1
(dp2
S'evals'
p3
(lp4
I314
aI304
aI296
aI344
aI293
aI334
aI300
aI317
aI300
aI313
aI379
aI296
aI299
aI326
aI329
aI320
aI326
aI301
aI309
aI314
aI306
aI307
aI332
aI335
aI299
aI292
aI307
aI301
aI293
aI331
asS'rank_diff'
p5
(lp6
I0
aI1
aI0
aI0
aI0
aI1
aI1
aI0
aI128
aI0
aI0
aI0
aI0
aI0
aI0
aI1
aI1
aI0
aI0
aI0
aI0
aI0
aI0
aI6
aI0
aI126
aI0
aI1
aI3
aI1
asS'testsize'
p7
(lp8
I1075
aI1075
aI1075
aI1075
aI1075
aI1075
aI1075
aI1075
aI1075
aI1075
aI1075
aI1075
aI1075
aI1075
aI1075
aI1075
aI1075
aI1075
aI1075
aI1075
aI1075
aI1075
aI1075
aI1075
aI1075
aI1075
aI1075
aI1075
aI1075
aI1075
ass.