(dp0
S'./Data/SS-A2.csv'
p1
(dp2
S'evals'
p3
(lp4
I330
aI292
aI298
aI309
aI314
aI301
aI294
aI318
aI307
aI327
aI320
aI294
aI313
aI316
aI317
aI299
aI295
aI298
aI296
aI337
aI294
aI294
aI345
aI296
aI300
aI328
aI302
aI293
aI316
aI306
asS'rank_diff'
p5
(lp6
I27
aI0
aI16
aI20
aI33
aI1
aI0
aI0
aI0
aI22
aI12
aI4
aI8
aI0
aI25
aI0
aI0
aI0
aI2
aI0
aI0
aI1
aI2
aI1
aI0
aI1
aI3
aI3
aI1
aI0
asS'testsize'
p7
(lp8
I1075
aI1075
aI1075
aI1075
aI1075
aI1075
aI1075
aI1075
aI1075
aI1075
aI1075
aI1075
aI1075
aI1075
aI1075
aI1075
aI1075
aI1075
aI1075
aI1075
aI1075
aI1075
aI1075
aI1075
aI1075
aI1075
aI1075
aI1075
aI1075
aI1075
assS'./Data/SS-A1.csv'
p9
(dp10
g3
(lp11
I314
aI304
aI296
aI344
aI293
aI334
aI300
aI317
aI300
aI313
aI379
aI296
aI299
aI326
aI329
aI320
aI326
aI301
aI309
aI314
aI306
aI307
aI332
aI335
aI299
aI292
aI307
aI301
aI293
aI331
asg5
(lp12
I0
aI1
aI0
aI0
aI0
aI1
aI1
aI0
aI128
aI0
aI0
aI0
aI0
aI0
aI0
aI1
aI1
aI0
aI0
aI0
aI0
aI0
aI0
aI6
aI0
aI126
aI0
aI1
aI3
aI1
asg7
(lp13
I1075
aI1075
aI1075
aI1075
aI1075
aI1075
aI1075
aI1075
aI1075
aI1075
aI1075
aI1075
aI1075
aI1075
aI1075
aI1075
aI1075
aI1075
aI1075
aI1075
aI1075
aI1075
aI1075
aI1075
aI1075
aI1075
aI1075
aI1075
aI1075
aI1075
ass.