(dp0
S'./Data/SS-N2.csv'
p1
(dp2
S'evals'
p3
(lp4
I16403
aI13453
aI12453
aI15003
aI13503
aI12603
aI13403
aI14553
aI12903
aI13953
aI15453
aI17853
aI12803
aI11653
aI13253
aI12803
aI12303
aI12853
aI16653
aI14503
aI12953
aI12703
aI16603
aI13153
aI14053
aI14153
aI14353
aI13853
aI13353
aI13453
asS'rank_diff'
p5
(lp6
I0
aI0
aI0
aI0
aI20
aI0
aI0
aI0
aI6
aI0
aI0
aI0
aI0
aI0
aI0
aI0
aI2
aI0
aI0
aI0
aI0
aI0
aI0
aI0
aI0
aI0
aI0
aI0
aI0
aI0
asS'testsize'
p7
(lp8
I42929
aI42929
aI42929
aI42929
aI42929
aI42929
aI42929
aI42929
aI42929
aI42929
aI42929
aI42929
aI42929
aI42929
aI42929
aI42929
aI42929
aI42929
aI42929
aI42929
aI42929
aI42929
aI42929
aI42929
aI42929
aI42929
aI42929
aI42929
aI42929
aI42929
ass.