(dp0
S'./Data/SS-E1.csv'
p1
(dp2
S'evals'
p3
(lp4
I180
aI214
aI186
aI197
aI189
aI185
aI238
aI197
aI178
aI192
aI181
aI179
aI187
aI221
aI231
aI188
aI175
aI228
aI181
aI194
aI185
aI187
aI185
aI191
aI199
aI178
aI260
aI179
aI182
aI187
asS'rank_diff'
p5
(lp6
I0
aI16
aI31
aI0
aI1
aI0
aI0
aI0
aI0
aI31
aI0
aI13
aI0
aI0
aI0
aI0
aI2
aI1
aI1
aI0
aI0
aI3
aI0
aI0
aI0
aI0
aI0
aI0
aI0
aI2
asS'testsize'
p7
(lp8
I605
aI605
aI605
aI605
aI605
aI605
aI605
aI605
aI605
aI605
aI605
aI605
aI605
aI605
aI605
aI605
aI605
aI605
aI605
aI605
aI605
aI605
aI605
aI605
aI605
aI605
aI605
aI605
aI605
aI605
assS'./Data/SS-C2.csv'
p9
(dp10
g3
(lp11
I356
aI339
aI351
aI332
aI356
aI340
aI342
aI337
aI339
aI331
aI425
aI341
aI343
aI352
aI327
aI328
aI347
aI334
aI327
aI341
aI355
aI359
aI393
aI350
aI333
aI333
aI339
aI349
aI327
aI365
asg5
(lp12
I3
aI2
aI23
aI10
aI1
aI0
aI1
aI0
aI2
aI2
aI1
aI1
aI0
aI4
aI3
aI3
aI0
aI2
aI3
aI3
aI4
aI3
aI1
aI13
aI31
aI0
aI1
aI1
aI4
aI1
asg7
(lp13
I1209
aI1209
aI1209
aI1209
aI1209
aI1209
aI1209
aI1209
aI1209
aI1209
aI1209
aI1209
aI1209
aI1209
aI1209
aI1209
aI1209
aI1209
aI1209
aI1209
aI1209
aI1209
aI1209
aI1209
aI1209
aI1209
aI1209
aI1209
aI1209
aI1209
assS'./Data/SS-B1.csv'
p14
(dp15
g3
(lp16
I84
aI81
aI80
aI66
aI72
aI94
aI72
aI92
aI73
aI72
aI65
aI70
aI72
aI78
aI93
aI73
aI76
aI83
aI68
aI105
aI84
aI97
aI74
aI82
aI68
aI72
aI67
aI77
aI66
aI87
asg5
(lp17
I0
aI3
aI0
aI6
aI0
aI0
aI0
aI0
aI0
aI26
aI0
aI0
aI0
aI0
aI0
aI2
aI0
aI0
aI7
aI0
aI0
aI0
aI0
aI0
aI1
aI0
aI0
aI0
aI0
aI0
asg7
(lp18
I165
aI165
aI165
aI165
aI165
aI165
aI165
aI165
aI165
aI165
aI165
aI165
aI165
aI165
aI165
aI165
aI165
aI165
aI165
aI165
aI165
aI165
aI165
aI165
aI165
aI165
aI165
aI165
aI165
aI165
assS'./Data/SS-D2.csv'
p19
(dp20
g3
(lp21
I64
aI78
aI70
aI94
aI122
aI95
aI65
aI64
aI88
aI67
aI77
aI70
aI68
aI81
aI79
aI69
aI67
aI74
aI63
aI66
aI75
aI87
aI81
aI108
aI80
aI83
aI86
aI73
aI68
aI91
asg5
(lp22
I1
aI0
aI1
aI0
aI0
aI0
aI0
aI0
aI0
aI1
aI0
aI2
aI0
aI0
aI0
aI0
aI0
aI0
aI0
aI0
aI0
aI0
aI0
aI0
aI1
aI0
aI0
aI0
aI2
aI0
asg7
(lp23
I157
aI157
aI157
aI157
aI157
aI157
aI157
aI157
aI157
aI157
aI157
aI157
aI157
aI157
aI157
aI157
aI157
aI157
aI157
aI157
aI157
aI157
aI157
aI157
aI157
aI157
aI157
aI157
aI157
aI157
assS'./Data/SS-E2.csv'
p24
(dp25
g3
(lp26
I224
aI194
aI202
aI182
aI178
aI179
aI209
aI183
aI197
aI189
aI202
aI200
aI197
aI192
aI193
aI203
aI215
aI176
aI262
aI175
aI184
aI198
aI191
aI202
aI208
aI175
aI210
aI175
aI214
aI183
asg5
(lp27
I0
aI1
aI3
aI1
aI2
aI0
aI1
aI5
aI0
aI0
aI4
aI0
aI0
aI0
aI0
aI1
aI2
aI13
aI2
aI0
aI0
aI0
aI1
aI57
aI0
aI8
aI0
aI62
aI15
aI2
asg7
(lp28
I605
aI605
aI605
aI605
aI605
aI605
aI605
aI605
aI605
aI605
aI605
aI605
aI605
aI605
aI605
aI605
aI605
aI605
aI605
aI605
aI605
aI605
aI605
aI605
aI605
aI605
aI605
aI605
aI605
aI605
assS'./Data/SS-A1.csv'
p29
(dp30
g3
(lp31
I314
aI304
aI296
aI344
aI293
aI334
aI300
aI317
aI300
aI313
aI379
aI296
aI299
aI326
aI329
aI320
aI326
aI301
aI309
aI314
aI306
aI307
aI332
aI335
aI299
aI292
aI307
aI301
aI293
aI331
asg5
(lp32
I0
aI1
aI0
aI0
aI0
aI1
aI1
aI0
aI128
aI0
aI0
aI0
aI0
aI0
aI0
aI1
aI1
aI0
aI0
aI0
aI0
aI0
aI0
aI6
aI0
aI126
aI0
aI1
aI3
aI1
asg7
(lp33
I1075
aI1075
aI1075
aI1075
aI1075
aI1075
aI1075
aI1075
aI1075
aI1075
aI1075
aI1075
aI1075
aI1075
aI1075
aI1075
aI1075
aI1075
aI1075
aI1075
aI1075
aI1075
aI1075
aI1075
aI1075
aI1075
aI1075
aI1075
aI1075
aI1075
assS'./Data/SS-D1.csv'
p34
(dp35
g3
(lp36
I65
aI90
aI113
aI67
aI63
aI66
aI63
aI63
aI68
aI100
aI73
aI71
aI63
aI76
aI63
aI71
aI64
aI70
aI68
aI117
aI72
aI69
aI82
aI63
aI77
aI64
aI63
aI65
aI65
aI64
asg5
(lp37
I0
aI0
aI0
aI1
aI0
aI8
aI2
aI1
aI0
aI0
aI0
aI0
aI0
aI0
aI11
aI5
aI1
aI0
aI4
aI0
aI0
aI0
aI0
aI0
aI1
aI0
aI0
aI0
aI0
aI0
asg7
(lp38
I157
aI157
aI157
aI157
aI157
aI157
aI157
aI157
aI157
aI157
aI157
aI157
aI157
aI157
aI157
aI157
aI157
aI157
aI157
aI157
aI157
aI157
aI157
aI157
aI157
aI157
aI157
aI157
aI157
aI157
assS'./Data/SS-A2.csv'
p39
(dp40
g3
(lp41
I330
aI292
aI298
aI309
aI314
aI301
aI294
aI318
aI307
aI327
aI320
aI294
aI313
aI316
aI317
aI299
aI295
aI298
aI296
aI337
aI294
aI294
aI345
aI296
aI300
aI328
aI302
aI293
aI316
aI306
asg5
(lp42
I27
aI0
aI16
aI20
aI33
aI1
aI0
aI0
aI0
aI22
aI12
aI4
aI8
aI0
aI25
aI0
aI0
aI0
aI2
aI0
aI0
aI1
aI2
aI1
aI0
aI1
aI3
aI3
aI1
aI0
asg7
(lp43
I1075
aI1075
aI1075
aI1075
aI1075
aI1075
aI1075
aI1075
aI1075
aI1075
aI1075
aI1075
aI1075
aI1075
aI1075
aI1075
aI1075
aI1075
aI1075
aI1075
aI1075
aI1075
aI1075
aI1075
aI1075
aI1075
aI1075
aI1075
aI1075
aI1075
assS'./Data/SS-F1.csv'
p44
(dp45
g3
(lp46
I118
aI64
aI64
aI66
aI117
aI79
aI66
aI82
aI69
aI75
aI70
aI75
aI63
aI99
aI88
aI69
aI63
aI80
aI67
aI88
aI63
aI71
aI108
aI113
aI67
aI70
aI63
aI74
aI66
aI64
asg5
(lp47
I0
aI0
aI0
aI0
aI0
aI0
aI0
aI5
aI0
aI0
aI0
aI0
aI0
aI0
aI0
aI0
aI8
aI0
aI0
aI0
aI4
aI0
aI0
aI0
aI0
aI0
aI17
aI1
aI5
aI0
asg7
(lp48
I157
aI157
aI157
aI157
aI157
aI157
aI157
aI157
aI157
aI157
aI157
aI157
aI157
aI157
aI157
aI157
aI157
aI157
aI157
aI157
aI157
aI157
aI157
aI157
aI157
aI157
aI157
aI157
aI157
aI157
assS'./Data/SS-G1.csv'
p49
(dp50
g3
(lp51
I64
aI81
aI89
aI77
aI79
aI69
aI79
aI77
aI75
aI69
aI63
aI63
aI96
aI83
aI67
aI66
aI64
aI66
aI82
aI95
aI63
aI64
aI64
aI80
aI67
aI98
aI66
aI73
aI65
aI105
asg5
(lp52
I0
aI0
aI0
aI0
aI0
aI0
aI3
aI0
aI0
aI0
aI3
aI0
aI0
aI0
aI1
aI0
aI0
aI0
aI0
aI0
aI1
aI0
aI0
aI0
aI0
aI0
aI0
aI0
aI0
aI0
asg7
(lp53
I157
aI157
aI157
aI157
aI157
aI157
aI157
aI157
aI157
aI157
aI157
aI157
aI157
aI157
aI157
aI157
aI157
aI157
aI157
aI157
aI157
aI157
aI157
aI157
aI157
aI157
aI157
aI157
aI157
aI157
assS'./Data/SS-F2.csv'
p54
(dp55
g3
(lp56
I71
aI72
aI70
aI63
aI71
aI86
aI83
aI89
aI83
aI63
aI75
aI85
aI101
aI63
aI74
aI65
aI75
aI110
aI124
aI65
aI92
aI63
aI86
aI66
aI71
aI74
aI83
aI75
aI81
aI68
asg5
(lp57
I0
aI0
aI0
aI0
aI5
aI0
aI0
aI0
aI1
aI1
aI4
aI0
aI0
aI1
aI0
aI0
aI1
aI0
aI0
aI0
aI0
aI11
aI0
aI0
aI2
aI0
aI0
aI0
aI0
aI0
asg7
(lp58
I157
aI157
aI157
aI157
aI157
aI157
aI157
aI157
aI157
aI157
aI157
aI157
aI157
aI157
aI157
aI157
aI157
aI157
aI157
aI157
aI157
aI157
aI157
aI157
aI157
aI157
aI157
aI157
aI157
aI157
assS'./Data/SS-C1.csv'
p59
(dp60
g3
(lp61
I329
aI332
aI327
aI360
aI342
aI333
aI333
aI327
aI342
aI328
aI349
aI335
aI327
aI374
aI388
aI328
aI338
aI338
aI344
aI329
aI366
aI402
aI366
aI335
aI331
aI352
aI373
aI373
aI357
aI330
asg5
(lp62
I8
aI6
aI2
aI3
aI1
aI0
aI0
aI0
aI20
aI2
aI4
aI0
aI0
aI19
aI3
aI0
aI1
aI0
aI0
aI1
aI0
aI0
aI0
aI0
aI5
aI1
aI2
aI3
aI0
aI1
asg7
(lp63
I1209
aI1209
aI1209
aI1209
aI1209
aI1209
aI1209
aI1209
aI1209
aI1209
aI1209
aI1209
aI1209
aI1209
aI1209
aI1209
aI1209
aI1209
aI1209
aI1209
aI1209
aI1209
aI1209
aI1209
aI1209
aI1209
aI1209
aI1209
aI1209
aI1209
assS'./Data/SS-B2.csv'
p64
(dp65
g3
(lp66
I73
aI78
aI72
aI89
aI72
aI75
aI66
aI76
aI67
aI91
aI73
aI69
aI66
aI67
aI115
aI68
aI76
aI70
aI69
aI102
aI71
aI106
aI70
aI71
aI98
aI66
aI116
aI97
aI65
aI99
asg5
(lp67
I0
aI0
aI2
aI0
aI0
aI0
aI0
aI0
aI0
aI0
aI0
aI0
aI0
aI0
aI0
aI0
aI0
aI0
aI0
aI0
aI0
aI0
aI2
aI0
aI0
aI0
aI0
aI0
aI0
aI0
asg7
(lp68
I165
aI165
aI165
aI165
aI165
aI165
aI165
aI165
aI165
aI165
aI165
aI165
aI165
aI165
aI165
aI165
aI165
aI165
aI165
aI165
aI165
aI165
aI165
aI165
aI165
aI165
aI165
aI165
aI165
aI165
assS'./Data/SS-G2.csv'
p69
(dp70
g3
(lp71
I65
aI64
aI66
aI68
aI63
aI71
aI90
aI76
aI67
aI68
aI66
aI77
aI96
aI68
aI63
aI70
aI71
aI66
aI68
aI70
aI65
aI72
aI85
aI66
aI74
aI93
aI64
aI71
aI63
aI83
asg5
(lp72
I3
aI0
aI0
aI0
aI2
aI0
aI0
aI1
aI0
aI0
aI11
aI0
aI0
aI2
aI0
aI1
aI10
aI2
aI3
aI0
aI0
aI0
aI0
aI0
aI0
aI0
aI1
aI0
aI3
aI0
asg7
(lp73
I157
aI157
aI157
aI157
aI157
aI157
aI157
aI157
aI157
aI157
aI157
aI157
aI157
aI157
aI157
aI157
aI157
aI157
aI157
aI157
aI157
aI157
aI157
aI157
aI157
aI157
aI157
aI157
aI157
aI157
ass.