(dp0
S'./Data/SS-O1.csv'
p1
(dp2
S'evals'
p3
(lp4
I14055
aI13455
aI13805
aI14305
aI13505
aI13705
aI13805
aI14455
aI13655
aI14755
aI13755
aI13455
aI13705
aI13505
aI13655
aI13455
aI14555
aI14005
aI13305
aI14055
aI14155
aI15205
aI13755
aI14305
aI13805
aI13555
aI13655
aI13705
aI15705
aI13405
asS'rank_diff'
p5
(lp6
I0
aI0
aI0
aI0
aI0
aI0
aI0
aI0
aI0
aI0
aI0
aI0
aI0
aI0
aI0
aI0
aI0
aI0
aI0
aI0
aI0
aI0
aI0
aI0
aI0
aI0
aI0
aI0
aI0
aI0
asS'testsize'
p7
(lp8
I52339
aI52339
aI52339
aI52339
aI52339
aI52339
aI52339
aI52339
aI52339
aI52339
aI52339
aI52339
aI52339
aI52339
aI52339
aI52339
aI52339
aI52339
aI52339
aI52339
aI52339
aI52339
aI52339
aI52339
aI52339
aI52339
aI52339
aI52339
aI52339
aI52339
ass.