(dp0
S'./Data/SS-A2.csv'
p1
(dp2
S'evals'
p3
(lp4
I330
aI292
aI298
aI309
aI314
aI301
aI294
aI318
aI307
aI327
aI320
aI294
aI313
aI316
aI317
aI299
aI295
aI298
aI296
aI337
aI294
aI294
aI345
aI296
aI300
aI328
aI302
aI293
aI316
aI306
asS'rank_diff'
p5
(lp6
I27
aI0
aI16
aI20
aI33
aI1
aI0
aI0
aI0
aI22
aI12
aI4
aI8
aI0
aI25
aI0
aI0
aI0
aI2
aI0
aI0
aI1
aI2
aI1
aI0
aI1
aI3
aI3
aI1
aI0
asS'testsize'
p7
(lp8
I1075
aI1075
aI1075
aI1075
aI1075
aI1075
aI1075
aI1075
aI1075
aI1075
aI1075
aI1075
aI1075
aI1075
aI1075
aI1075
aI1075
aI1075
aI1075
aI1075
aI1075
aI1075
aI1075
aI1075
aI1075
aI1075
aI1075
aI1075
aI1075
aI1075
assS'./Data/SS-C1.csv'
p9
(dp10
g3
(lp11
I329
aI332
aI327
aI360
aI342
aI333
aI333
aI327
aI342
aI328
aI349
aI335
aI327
aI374
aI388
aI328
aI338
aI338
aI344
aI329
aI366
aI402
aI366
aI335
aI331
aI352
aI373
aI373
aI357
aI330
asg5
(lp12
I8
aI6
aI2
aI3
aI1
aI0
aI0
aI0
aI20
aI2
aI4
aI0
aI0
aI19
aI3
aI0
aI1
aI0
aI0
aI1
aI0
aI0
aI0
aI0
aI5
aI1
aI2
aI3
aI0
aI1
asg7
(lp13
I1209
aI1209
aI1209
aI1209
aI1209
aI1209
aI1209
aI1209
aI1209
aI1209
aI1209
aI1209
aI1209
aI1209
aI1209
aI1209
aI1209
aI1209
aI1209
aI1209
aI1209
aI1209
aI1209
aI1209
aI1209
aI1209
aI1209
aI1209
aI1209
aI1209
assS'./Data/SS-A1.csv'
p14
(dp15
g3
(lp16
I314
aI304
aI296
aI344
aI293
aI334
aI300
aI317
aI300
aI313
aI379
aI296
aI299
aI326
aI329
aI320
aI326
aI301
aI309
aI314
aI306
aI307
aI332
aI335
aI299
aI292
aI307
aI301
aI293
aI331
asg5
(lp17
I0
aI1
aI0
aI0
aI0
aI1
aI1
aI0
aI128
aI0
aI0
aI0
aI0
aI0
aI0
aI1
aI1
aI0
aI0
aI0
aI0
aI0
aI0
aI6
aI0
aI126
aI0
aI1
aI3
aI1
asg7
(lp18
I1075
aI1075
aI1075
aI1075
aI1075
aI1075
aI1075
aI1075
aI1075
aI1075
aI1075
aI1075
aI1075
aI1075
aI1075
aI1075
aI1075
aI1075
aI1075
aI1075
aI1075
aI1075
aI1075
aI1075
aI1075
aI1075
aI1075
aI1075
aI1075
aI1075
assS'./Data/SS-B2.csv'
p19
(dp20
g3
(lp21
I73
aI78
aI72
aI89
aI72
aI75
aI66
aI76
aI67
aI91
aI73
aI69
aI66
aI67
aI115
aI68
aI76
aI70
aI69
aI102
aI71
aI106
aI70
aI71
aI98
aI66
aI116
aI97
aI65
aI99
asg5
(lp22
I0
aI0
aI2
aI0
aI0
aI0
aI0
aI0
aI0
aI0
aI0
aI0
aI0
aI0
aI0
aI0
aI0
aI0
aI0
aI0
aI0
aI0
aI2
aI0
aI0
aI0
aI0
aI0
aI0
aI0
asg7
(lp23
I165
aI165
aI165
aI165
aI165
aI165
aI165
aI165
aI165
aI165
aI165
aI165
aI165
aI165
aI165
aI165
aI165
aI165
aI165
aI165
aI165
aI165
aI165
aI165
aI165
aI165
aI165
aI165
aI165
aI165
assS'./Data/SS-B1.csv'
p24
(dp25
g3
(lp26
I84
aI81
aI80
aI66
aI72
aI94
aI72
aI92
aI73
aI72
aI65
aI70
aI72
aI78
aI93
aI73
aI76
aI83
aI68
aI105
aI84
aI97
aI74
aI82
aI68
aI72
aI67
aI77
aI66
aI87
asg5
(lp27
I0
aI3
aI0
aI6
aI0
aI0
aI0
aI0
aI0
aI26
aI0
aI0
aI0
aI0
aI0
aI2
aI0
aI0
aI7
aI0
aI0
aI0
aI0
aI0
aI1
aI0
aI0
aI0
aI0
aI0
asg7
(lp28
I165
aI165
aI165
aI165
aI165
aI165
aI165
aI165
aI165
aI165
aI165
aI165
aI165
aI165
aI165
aI165
aI165
aI165
aI165
aI165
aI165
aI165
aI165
aI165
aI165
aI165
aI165
aI165
aI165
aI165
ass.