(dp0
S'./Data/SS-N1.csv'
p1
(dp2
S'evals'
p3
(lp4
I12503
aI11553
aI11503
aI15103
aI13053
aI11803
aI12703
aI13303
aI16753
aI13703
aI11803
aI12003
aI13553
aI11403
aI13753
aI12153
aI11603
aI12853
aI14703
aI13353
aI13853
aI12603
aI16903
aI12803
aI11853
aI13053
aI12603
aI12353
aI12603
aI11653
asS'rank_diff'
p5
(lp6
I21
aI12
aI41
aI2
aI7
aI4
aI6
aI4
aI0
aI1
aI5
aI79
aI3
aI5
aI10
aI13
aI0
aI41
aI1
aI5
aI1
aI7
aI4
aI2
aI1
aI15
aI4
aI1
aI1
aI0
asS'testsize'
p7
(lp8
I42929
aI42929
aI42929
aI42929
aI42929
aI42929
aI42929
aI42929
aI42929
aI42929
aI42929
aI42929
aI42929
aI42929
aI42929
aI42929
aI42929
aI42929
aI42929
aI42929
aI42929
aI42929
aI42929
aI42929
aI42929
aI42929
aI42929
aI42929
aI42929
aI42929
ass.