(dp0
S'./Data/SS-K1.csv'
p1
(dp2
S'evals'
p3
(lp4
I607
aI613
aI626
aI603
aI610
aI609
aI619
aI602
aI653
aI630
aI623
aI632
aI665
aI609
aI607
aI624
aI604
aI673
aI651
aI615
aI635
aI604
aI606
aI611
aI626
aI637
aI600
aI617
aI610
aI601
asS'rank_diff'
p5
(lp6
I0
aI44
aI0
aI3
aI0
aI1
aI0
aI0
aI1
aI0
aI17
aI1
aI1
aI1
aI5
aI36
aI0
aI13
aI0
aI83
aI0
aI86
aI0
aI0
aI0
aI0
aI7
aI2
aI3
aI1
asS'testsize'
p7
(lp8
I2304
aI2304
aI2304
aI2304
aI2304
aI2304
aI2304
aI2304
aI2304
aI2304
aI2304
aI2304
aI2304
aI2304
aI2304
aI2304
aI2304
aI2304
aI2304
aI2304
aI2304
aI2304
aI2304
aI2304
aI2304
aI2304
aI2304
aI2304
aI2304
aI2304
assS'./Data/SS-J2.csv'
p9
(dp10
g3
(lp11
I801
aI792
aI797
aI794
aI830
aI823
aI825
aI827
aI812
aI842
aI797
aI794
aI800
aI799
aI820
aI804
aI850
aI810
aI800
aI884
aI792
aI838
aI809
aI839
aI805
aI795
aI819
aI803
aI874
aI817
asg5
(lp12
I0
aI17
aI0
aI1
aI0
aI0
aI0
aI9
aI27
aI0
aI267
aI24
aI1
aI0
aI7
aI2
aI1
aI0
aI24
aI0
aI63
aI6
aI1
aI0
aI12
aI6
aI11
aI14
aI105
aI107
asg7
(lp13
I3072
aI3072
aI3072
aI3072
aI3072
aI3072
aI3072
aI3072
aI3072
aI3072
aI3072
aI3072
aI3072
aI3072
aI3072
aI3072
aI3072
aI3072
aI3072
aI3072
aI3072
aI3072
aI3072
aI3072
aI3072
aI3072
aI3072
aI3072
aI3072
aI3072
assS'./Data/SS-E2.csv'
p14
(dp15
g3
(lp16
I224
aI194
aI202
aI182
aI178
aI179
aI209
aI183
aI197
aI189
aI202
aI200
aI197
aI192
aI193
aI203
aI215
aI176
aI262
aI175
aI184
aI198
aI191
aI202
aI208
aI175
aI210
aI175
aI214
aI183
asg5
(lp17
I0
aI1
aI3
aI1
aI2
aI0
aI1
aI5
aI0
aI0
aI4
aI0
aI0
aI0
aI0
aI1
aI2
aI13
aI2
aI0
aI0
aI0
aI1
aI57
aI0
aI8
aI0
aI62
aI15
aI2
asg7
(lp18
I605
aI605
aI605
aI605
aI605
aI605
aI605
aI605
aI605
aI605
aI605
aI605
aI605
aI605
aI605
aI605
aI605
aI605
aI605
aI605
aI605
aI605
aI605
aI605
aI605
aI605
aI605
aI605
aI605
aI605
assS'./Data/SS-J1.csv'
p19
(dp20
g3
(lp21
I794
aI794
aI821
aI801
aI826
aI807
aI806
aI802
aI815
aI820
aI839
aI805
aI817
aI810
aI830
aI856
aI794
aI801
aI845
aI793
aI806
aI851
aI795
aI798
aI816
aI874
aI795
aI812
aI799
aI812
asg5
(lp22
I43
aI43
aI43
aI0
aI6
aI1
aI40
aI0
aI45
aI39
aI0
aI9
aI45
aI47
aI2
aI11
aI59
aI11
aI13
aI0
aI40
aI50
aI17
aI40
aI0
aI0
aI45
aI44
aI1
aI0
asg7
(lp23
I3072
aI3072
aI3072
aI3072
aI3072
aI3072
aI3072
aI3072
aI3072
aI3072
aI3072
aI3072
aI3072
aI3072
aI3072
aI3072
aI3072
aI3072
aI3072
aI3072
aI3072
aI3072
aI3072
aI3072
aI3072
aI3072
aI3072
aI3072
aI3072
aI3072
assS'./Data/SS-L2.csv'
p24
(dp25
g3
(lp26
I228
aI230
aI290
aI262
aI232
aI228
aI237
aI253
aI229
aI234
aI229
aI240
aI265
aI271
aI235
aI233
aI232
aI278
aI228
aI248
aI230
aI238
aI234
aI246
aI258
aI229
aI275
aI273
aI229
aI239
asg5
(lp27
I42
aI0
aI0
aI0
aI0
aI0
aI4
aI2
aI1
aI4
aI0
aI6
aI0
aI0
aI0
aI2
aI0
aI0
aI0
aI2
aI0
aI5
aI0
aI5
aI0
aI0
aI0
aI0
aI0
aI0
asg7
(lp28
I819
aI819
aI819
aI819
aI819
aI819
aI819
aI819
aI819
aI819
aI819
aI819
aI819
aI819
aI819
aI819
aI819
aI819
aI819
aI819
aI819
aI819
aI819
aI819
aI819
aI819
aI819
aI819
aI819
aI819
assS'./Data/SS-L1.csv'
p29
(dp30
g3
(lp31
I268
aI244
aI268
aI260
aI228
aI228
aI236
aI251
aI251
aI237
aI235
aI277
aI279
aI249
aI231
aI252
aI242
aI228
aI236
aI237
aI294
aI244
aI323
aI241
aI274
aI231
aI315
aI235
aI246
aI305
asg5
(lp32
I0
aI3
aI0
aI6
aI54
aI0
aI21
aI7
aI13
aI0
aI46
aI0
aI9
aI0
aI6
aI0
aI14
aI70
aI0
aI13
aI0
aI1
aI0
aI0
aI0
aI1
aI0
aI0
aI0
aI2
asg7
(lp33
I819
aI819
aI819
aI819
aI819
aI819
aI819
aI819
aI819
aI819
aI819
aI819
aI819
aI819
aI819
aI819
aI819
aI819
aI819
aI819
aI819
aI819
aI819
aI819
aI819
aI819
aI819
aI819
aI819
aI819
assS'./Data/SS-I2.csv'
p34
(dp35
g3
(lp36
I245
aI248
aI259
aI253
aI247
aI246
aI281
aI240
aI245
aI280
aI245
aI272
aI242
aI287
aI256
aI258
aI251
aI267
aI244
aI243
aI244
aI243
aI311
aI244
aI242
aI267
aI245
aI281
aI254
aI269
asg5
(lp37
I1
aI2
aI0
aI0
aI0
aI0
aI0
aI0
aI0
aI2
aI0
aI4
aI0
aI1
aI4
aI1
aI3
aI0
aI0
aI0
aI2
aI2
aI0
aI2
aI0
aI0
aI4
aI0
aI0
aI22
asg7
(lp38
I864
aI864
aI864
aI864
aI864
aI864
aI864
aI864
aI864
aI864
aI864
aI864
aI864
aI864
aI864
aI864
aI864
aI864
aI864
aI864
aI864
aI864
aI864
aI864
aI864
aI864
aI864
aI864
aI864
aI864
assS'./Data/SS-B1.csv'
p39
(dp40
g3
(lp41
I84
aI81
aI80
aI66
aI72
aI94
aI72
aI92
aI73
aI72
aI65
aI70
aI72
aI78
aI93
aI73
aI76
aI83
aI68
aI105
aI84
aI97
aI74
aI82
aI68
aI72
aI67
aI77
aI66
aI87
asg5
(lp42
I0
aI3
aI0
aI6
aI0
aI0
aI0
aI0
aI0
aI26
aI0
aI0
aI0
aI0
aI0
aI2
aI0
aI0
aI7
aI0
aI0
aI0
aI0
aI0
aI1
aI0
aI0
aI0
aI0
aI0
asg7
(lp43
I165
aI165
aI165
aI165
aI165
aI165
aI165
aI165
aI165
aI165
aI165
aI165
aI165
aI165
aI165
aI165
aI165
aI165
aI165
aI165
aI165
aI165
aI165
aI165
aI165
aI165
aI165
aI165
aI165
aI165
assS'./Data/SS-E1.csv'
p44
(dp45
g3
(lp46
I180
aI214
aI186
aI197
aI189
aI185
aI238
aI197
aI178
aI192
aI181
aI179
aI187
aI221
aI231
aI188
aI175
aI228
aI181
aI194
aI185
aI187
aI185
aI191
aI199
aI178
aI260
aI179
aI182
aI187
asg5
(lp47
I0
aI16
aI31
aI0
aI1
aI0
aI0
aI0
aI0
aI31
aI0
aI13
aI0
aI0
aI0
aI0
aI2
aI1
aI1
aI0
aI0
aI3
aI0
aI0
aI0
aI0
aI0
aI0
aI0
aI2
asg7
(lp48
I605
aI605
aI605
aI605
aI605
aI605
aI605
aI605
aI605
aI605
aI605
aI605
aI605
aI605
aI605
aI605
aI605
aI605
aI605
aI605
aI605
aI605
aI605
aI605
aI605
aI605
aI605
aI605
aI605
aI605
assS'./Data/SS-F2.csv'
p49
(dp50
g3
(lp51
I71
aI72
aI70
aI63
aI71
aI86
aI83
aI89
aI83
aI63
aI75
aI85
aI101
aI63
aI74
aI65
aI75
aI110
aI124
aI65
aI92
aI63
aI86
aI66
aI71
aI74
aI83
aI75
aI81
aI68
asg5
(lp52
I0
aI0
aI0
aI0
aI5
aI0
aI0
aI0
aI1
aI1
aI4
aI0
aI0
aI1
aI0
aI0
aI1
aI0
aI0
aI0
aI0
aI11
aI0
aI0
aI2
aI0
aI0
aI0
aI0
aI0
asg7
(lp53
I157
aI157
aI157
aI157
aI157
aI157
aI157
aI157
aI157
aI157
aI157
aI157
aI157
aI157
aI157
aI157
aI157
aI157
aI157
aI157
aI157
aI157
aI157
aI157
aI157
aI157
aI157
aI157
aI157
aI157
assS'./Data/SS-A1.csv'
p54
(dp55
g3
(lp56
I314
aI304
aI296
aI344
aI293
aI334
aI300
aI317
aI300
aI313
aI379
aI296
aI299
aI326
aI329
aI320
aI326
aI301
aI309
aI314
aI306
aI307
aI332
aI335
aI299
aI292
aI307
aI301
aI293
aI331
asg5
(lp57
I0
aI1
aI0
aI0
aI0
aI1
aI1
aI0
aI128
aI0
aI0
aI0
aI0
aI0
aI0
aI1
aI1
aI0
aI0
aI0
aI0
aI0
aI0
aI6
aI0
aI126
aI0
aI1
aI3
aI1
asg7
(lp58
I1075
aI1075
aI1075
aI1075
aI1075
aI1075
aI1075
aI1075
aI1075
aI1075
aI1075
aI1075
aI1075
aI1075
aI1075
aI1075
aI1075
aI1075
aI1075
aI1075
aI1075
aI1075
aI1075
aI1075
aI1075
aI1075
aI1075
aI1075
aI1075
aI1075
assS'./Data/SS-A2.csv'
p59
(dp60
g3
(lp61
I330
aI292
aI298
aI309
aI314
aI301
aI294
aI318
aI307
aI327
aI320
aI294
aI313
aI316
aI317
aI299
aI295
aI298
aI296
aI337
aI294
aI294
aI345
aI296
aI300
aI328
aI302
aI293
aI316
aI306
asg5
(lp62
I27
aI0
aI16
aI20
aI33
aI1
aI0
aI0
aI0
aI22
aI12
aI4
aI8
aI0
aI25
aI0
aI0
aI0
aI2
aI0
aI0
aI1
aI2
aI1
aI0
aI1
aI3
aI3
aI1
aI0
asg7
(lp63
I1075
aI1075
aI1075
aI1075
aI1075
aI1075
aI1075
aI1075
aI1075
aI1075
aI1075
aI1075
aI1075
aI1075
aI1075
aI1075
aI1075
aI1075
aI1075
aI1075
aI1075
aI1075
aI1075
aI1075
aI1075
aI1075
aI1075
aI1075
aI1075
aI1075
assS'./Data/SS-H2.csv'
p64
(dp65
g3
(lp66
I77
aI83
aI96
aI125
aI88
aI77
aI79
aI92
aI90
aI89
aI112
aI89
aI77
aI99
aI103
aI91
aI76
aI109
aI98
aI86
aI85
aI123
aI109
aI98
aI90
aI102
aI101
aI93
aI78
aI100
asg5
(lp67
I0
aI0
aI0
aI0
aI3
aI4
aI0
aI0
aI0
aI0
aI0
aI0
aI0
aI0
aI0
aI0
aI29
aI0
aI0
aI0
aI7
aI0
aI0
aI1
aI0
aI0
aI0
aI0
aI2
aI0
asg7
(lp68
I207
aI207
aI207
aI207
aI207
aI207
aI207
aI207
aI207
aI207
aI207
aI207
aI207
aI207
aI207
aI207
aI207
aI207
aI207
aI207
aI207
aI207
aI207
aI207
aI207
aI207
aI207
aI207
aI207
aI207
assS'./Data/SS-G2.csv'
p69
(dp70
g3
(lp71
I65
aI64
aI66
aI68
aI63
aI71
aI90
aI76
aI67
aI68
aI66
aI77
aI96
aI68
aI63
aI70
aI71
aI66
aI68
aI70
aI65
aI72
aI85
aI66
aI74
aI93
aI64
aI71
aI63
aI83
asg5
(lp72
I3
aI0
aI0
aI0
aI2
aI0
aI0
aI1
aI0
aI0
aI11
aI0
aI0
aI2
aI0
aI1
aI10
aI2
aI3
aI0
aI0
aI0
aI0
aI0
aI0
aI0
aI1
aI0
aI3
aI0
asg7
(lp73
I157
aI157
aI157
aI157
aI157
aI157
aI157
aI157
aI157
aI157
aI157
aI157
aI157
aI157
aI157
aI157
aI157
aI157
aI157
aI157
aI157
aI157
aI157
aI157
aI157
aI157
aI157
aI157
aI157
aI157
assS'./Data/SS-C2.csv'
p74
(dp75
g3
(lp76
I356
aI339
aI351
aI332
aI356
aI340
aI342
aI337
aI339
aI331
aI425
aI341
aI343
aI352
aI327
aI328
aI347
aI334
aI327
aI341
aI355
aI359
aI393
aI350
aI333
aI333
aI339
aI349
aI327
aI365
asg5
(lp77
I3
aI2
aI23
aI10
aI1
aI0
aI1
aI0
aI2
aI2
aI1
aI1
aI0
aI4
aI3
aI3
aI0
aI2
aI3
aI3
aI4
aI3
aI1
aI13
aI31
aI0
aI1
aI1
aI4
aI1
asg7
(lp78
I1209
aI1209
aI1209
aI1209
aI1209
aI1209
aI1209
aI1209
aI1209
aI1209
aI1209
aI1209
aI1209
aI1209
aI1209
aI1209
aI1209
aI1209
aI1209
aI1209
aI1209
aI1209
aI1209
aI1209
aI1209
aI1209
aI1209
aI1209
aI1209
aI1209
assS'./Data/SS-D1.csv'
p79
(dp80
g3
(lp81
I65
aI90
aI113
aI67
aI63
aI66
aI63
aI63
aI68
aI100
aI73
aI71
aI63
aI76
aI63
aI71
aI64
aI70
aI68
aI117
aI72
aI69
aI82
aI63
aI77
aI64
aI63
aI65
aI65
aI64
asg5
(lp82
I0
aI0
aI0
aI1
aI0
aI8
aI2
aI1
aI0
aI0
aI0
aI0
aI0
aI0
aI11
aI5
aI1
aI0
aI4
aI0
aI0
aI0
aI0
aI0
aI1
aI0
aI0
aI0
aI0
aI0
asg7
(lp83
I157
aI157
aI157
aI157
aI157
aI157
aI157
aI157
aI157
aI157
aI157
aI157
aI157
aI157
aI157
aI157
aI157
aI157
aI157
aI157
aI157
aI157
aI157
aI157
aI157
aI157
aI157
aI157
aI157
aI157
assS'./Data/SS-F1.csv'
p84
(dp85
g3
(lp86
I118
aI64
aI64
aI66
aI117
aI79
aI66
aI82
aI69
aI75
aI70
aI75
aI63
aI99
aI88
aI69
aI63
aI80
aI67
aI88
aI63
aI71
aI108
aI113
aI67
aI70
aI63
aI74
aI66
aI64
asg5
(lp87
I0
aI0
aI0
aI0
aI0
aI0
aI0
aI5
aI0
aI0
aI0
aI0
aI0
aI0
aI0
aI0
aI8
aI0
aI0
aI0
aI4
aI0
aI0
aI0
aI0
aI0
aI17
aI1
aI5
aI0
asg7
(lp88
I157
aI157
aI157
aI157
aI157
aI157
aI157
aI157
aI157
aI157
aI157
aI157
aI157
aI157
aI157
aI157
aI157
aI157
aI157
aI157
aI157
aI157
aI157
aI157
aI157
aI157
aI157
aI157
aI157
aI157
assS'./Data/SS-H1.csv'
p89
(dp90
g3
(lp91
I99
aI85
aI79
aI87
aI88
aI90
aI85
aI77
aI90
aI85
aI84
aI111
aI104
aI78
aI88
aI76
aI93
aI82
aI76
aI76
aI104
aI76
aI90
aI129
aI143
aI106
aI106
aI108
aI116
aI79
asg5
(lp92
I0
aI0
aI0
aI0
aI0
aI0
aI0
aI0
aI0
aI0
aI0
aI0
aI0
aI0
aI1
aI0
aI0
aI0
aI0
aI0
aI0
aI0
aI0
aI0
aI0
aI0
aI0
aI0
aI0
aI1
asg7
(lp93
I207
aI207
aI207
aI207
aI207
aI207
aI207
aI207
aI207
aI207
aI207
aI207
aI207
aI207
aI207
aI207
aI207
aI207
aI207
aI207
aI207
aI207
aI207
aI207
aI207
aI207
aI207
aI207
aI207
aI207
assS'./Data/SS-C1.csv'
p94
(dp95
g3
(lp96
I329
aI332
aI327
aI360
aI342
aI333
aI333
aI327
aI342
aI328
aI349
aI335
aI327
aI374
aI388
aI328
aI338
aI338
aI344
aI329
aI366
aI402
aI366
aI335
aI331
aI352
aI373
aI373
aI357
aI330
asg5
(lp97
I8
aI6
aI2
aI3
aI1
aI0
aI0
aI0
aI20
aI2
aI4
aI0
aI0
aI19
aI3
aI0
aI1
aI0
aI0
aI1
aI0
aI0
aI0
aI0
aI5
aI1
aI2
aI3
aI0
aI1
asg7
(lp98
I1209
aI1209
aI1209
aI1209
aI1209
aI1209
aI1209
aI1209
aI1209
aI1209
aI1209
aI1209
aI1209
aI1209
aI1209
aI1209
aI1209
aI1209
aI1209
aI1209
aI1209
aI1209
aI1209
aI1209
aI1209
aI1209
aI1209
aI1209
aI1209
aI1209
assS'./Data/SS-B2.csv'
p99
(dp100
g3
(lp101
I73
aI78
aI72
aI89
aI72
aI75
aI66
aI76
aI67
aI91
aI73
aI69
aI66
aI67
aI115
aI68
aI76
aI70
aI69
aI102
aI71
aI106
aI70
aI71
aI98
aI66
aI116
aI97
aI65
aI99
asg5
(lp102
I0
aI0
aI2
aI0
aI0
aI0
aI0
aI0
aI0
aI0
aI0
aI0
aI0
aI0
aI0
aI0
aI0
aI0
aI0
aI0
aI0
aI0
aI2
aI0
aI0
aI0
aI0
aI0
aI0
aI0
asg7
(lp103
I165
aI165
aI165
aI165
aI165
aI165
aI165
aI165
aI165
aI165
aI165
aI165
aI165
aI165
aI165
aI165
aI165
aI165
aI165
aI165
aI165
aI165
aI165
aI165
aI165
aI165
aI165
aI165
aI165
aI165
assS'./Data/SS-D2.csv'
p104
(dp105
g3
(lp106
I64
aI78
aI70
aI94
aI122
aI95
aI65
aI64
aI88
aI67
aI77
aI70
aI68
aI81
aI79
aI69
aI67
aI74
aI63
aI66
aI75
aI87
aI81
aI108
aI80
aI83
aI86
aI73
aI68
aI91
asg5
(lp107
I1
aI0
aI1
aI0
aI0
aI0
aI0
aI0
aI0
aI1
aI0
aI2
aI0
aI0
aI0
aI0
aI0
aI0
aI0
aI0
aI0
aI0
aI0
aI0
aI1
aI0
aI0
aI0
aI2
aI0
asg7
(lp108
I157
aI157
aI157
aI157
aI157
aI157
aI157
aI157
aI157
aI157
aI157
aI157
aI157
aI157
aI157
aI157
aI157
aI157
aI157
aI157
aI157
aI157
aI157
aI157
aI157
aI157
aI157
aI157
aI157
aI157
assS'./Data/SS-K2.csv'
p109
(dp110
g3
(lp111
I782
aI600
aI635
aI601
aI617
aI602
aI619
aI614
aI600
aI610
aI649
aI618
aI610
aI633
aI605
aI603
aI610
aI666
aI625
aI657
aI623
aI632
aI684
aI664
aI614
aI608
aI647
aI600
aI673
aI605
asg5
(lp112
I0
aI20
aI0
aI33
aI15
aI0
aI0
aI0
aI0
aI0
aI10
aI2
aI117
aI0
aI2
aI0
aI176
aI2
aI2
aI0
aI0
aI0
aI3
aI0
aI19
aI49
aI0
aI0
aI0
aI0
asg7
(lp113
I2304
aI2304
aI2304
aI2304
aI2304
aI2304
aI2304
aI2304
aI2304
aI2304
aI2304
aI2304
aI2304
aI2304
aI2304
aI2304
aI2304
aI2304
aI2304
aI2304
aI2304
aI2304
aI2304
aI2304
aI2304
aI2304
aI2304
aI2304
aI2304
aI2304
assS'./Data/SS-I1.csv'
p114
(dp115
g3
(lp116
I273
aI256
aI251
aI244
aI293
aI253
aI287
aI267
aI324
aI240
aI241
aI246
aI358
aI240
aI241
aI260
aI262
aI295
aI289
aI305
aI244
aI251
aI248
aI240
aI252
aI259
aI260
aI245
aI243
aI257
asg5
(lp117
I1
aI4
aI1
aI0
aI1
aI2
aI1
aI1
aI0
aI1
aI32
aI4
aI3
aI1
aI0
aI3
aI4
aI13
aI14
aI2
aI4
aI3
aI24
aI3
aI2
aI5
aI11
aI1
aI1
aI8
asg7
(lp118
I864
aI864
aI864
aI864
aI864
aI864
aI864
aI864
aI864
aI864
aI864
aI864
aI864
aI864
aI864
aI864
aI864
aI864
aI864
aI864
aI864
aI864
aI864
aI864
aI864
aI864
aI864
aI864
aI864
aI864
assS'./Data/SS-G1.csv'
p119
(dp120
g3
(lp121
I64
aI81
aI89
aI77
aI79
aI69
aI79
aI77
aI75
aI69
aI63
aI63
aI96
aI83
aI67
aI66
aI64
aI66
aI82
aI95
aI63
aI64
aI64
aI80
aI67
aI98
aI66
aI73
aI65
aI105
asg5
(lp122
I0
aI0
aI0
aI0
aI0
aI0
aI3
aI0
aI0
aI0
aI3
aI0
aI0
aI0
aI1
aI0
aI0
aI0
aI0
aI0
aI1
aI0
aI0
aI0
aI0
aI0
aI0
aI0
aI0
aI0
asg7
(lp123
I157
aI157
aI157
aI157
aI157
aI157
aI157
aI157
aI157
aI157
aI157
aI157
aI157
aI157
aI157
aI157
aI157
aI157
aI157
aI157
aI157
aI157
aI157
aI157
aI157
aI157
aI157
aI157
aI157
aI157
ass.