(dp0
S'./Data/SS-A1.csv'
p1
(dp2
S'evals'
p3
(lp4
I312
aI406
aI295
aI300
aI304
aI312
aI314
aI329
aI314
aI314
aI295
aI297
aI309
aI297
aI302
aI351
aI323
aI319
aI327
aI302
aI294
aI312
aI348
aI323
aI299
aI309
aI307
aI335
aI308
aI327
asS'rank_diff'
p5
(lp6
I0
aI0
aI0
aI0
aI0
aI17
aI0
aI0
aI0
aI11
aI4
aI0
aI0
aI0
aI1
aI0
aI0
aI0
aI0
aI0
aI0
aI5
aI0
aI6
aI3
aI1
aI0
aI0
aI3
aI0
asS'testsize'
p7
(lp8
I1075
aI1075
aI1075
aI1075
aI1075
aI1075
aI1075
aI1075
aI1075
aI1075
aI1075
aI1075
aI1075
aI1075
aI1075
aI1075
aI1075
aI1075
aI1075
aI1075
aI1075
aI1075
aI1075
aI1075
aI1075
aI1075
aI1075
aI1075
aI1075
aI1075
ass.