(dp0
S'./Data/SS-M2.csv'
p1
(dp2
S'evals'
p3
(lp4
I87692
aI82092
aI86092
aI80892
aI83692
aI83892
aI80892
aI85692
aI76292
aI85492
aI88692
aI87092
aI85892
aI84692
aI82092
aI76892
aI82092
aI81492
aI86092
aI79692
aI83692
aI80892
aI80692
aI83292
aI85892
aI82492
aI91892
aI80492
aI81492
aI92692
asS'rank_diff'
p5
(lp6
I3
aI0
aI2
aI5
aI4
aI0
aI6
aI1
aI4
aI10
aI0
aI5
aI4
aI4
aI8
aI0
aI2
aI1
aI0
aI9
aI2
aI1
aI1
aI1
aI4
aI1
aI2
aI1
aI0
aI0
asS'testsize'
p7
(lp8
I191488
aI191488
aI191488
aI191488
aI191488
aI191488
aI191488
aI191488
aI191488
aI191488
aI191488
aI191488
aI191488
aI191488
aI191488
aI191488
aI191488
aI191488
aI191488
aI191488
aI191488
aI191488
aI191488
aI191488
aI191488
aI191488
aI191488
aI191488
aI191488
aI191488
ass.