(dp0
S'./Data/SS-O2.csv'
p1
(dp2
S'evals'
p3
(lp4
I14305
aI13305
aI13305
aI13505
aI14105
aI13705
aI13305
aI13305
aI14505
aI13305
aI13305
aI13305
aI13305
aI13305
aI13305
aI13305
aI13705
aI13505
aI13505
aI13505
aI13305
aI13305
aI13505
aI13305
aI13305
aI13305
aI13305
aI13305
aI13305
aI13305
asS'rank_diff'
p5
(lp6
I0
aI3
aI125
aI205
aI0
aI27
aI0
aI29
aI26
aI28
aI1
aI28
aI2
aI0
aI37
aI46
aI29
aI3
aI198
aI29
aI235
aI207
aI0
aI27
aI125
aI215
aI28
aI0
aI3
aI32
asS'testsize'
p7
(lp8
I52339
aI52339
aI52339
aI52339
aI52339
aI52339
aI52339
aI52339
aI52339
aI52339
aI52339
aI52339
aI52339
aI52339
aI52339
aI52339
aI52339
aI52339
aI52339
aI52339
aI52339
aI52339
aI52339
aI52339
aI52339
aI52339
aI52339
aI52339
aI52339
aI52339
ass.