(dp0
S'./Data/SS-O1.csv'
p1
(dp2
S'evals'
p3
(lp4
I26305
aI26305
aI26305
aI26305
aI26305
aI26305
aI26305
aI26305
aI26305
aI26305
aI26305
aI26305
aI26305
aI26305
aI26305
aI26305
aI26305
aI26305
aI26305
aI26305
aI26305
aI26305
aI26305
aI26305
aI26305
aI26305
aI26305
aI26305
aI26305
aI26305
asS'rank_diff'
p5
(lp6
I0
aI0
aI0
aI0
aI0
aI0
aI0
aI0
aI0
aI0
aI0
aI0
aI0
aI0
aI0
aI0
aI0
aI0
aI0
aI0
aI0
aI0
aI0
aI0
aI0
aI0
aI0
aI0
aI0
aI0
asS'testsize'
p7
(lp8
I52339
aI52339
aI52339
aI52339
aI52339
aI52339
aI52339
aI52339
aI52339
aI52339
aI52339
aI52339
aI52339
aI52339
aI52339
aI52339
aI52339
aI52339
aI52339
aI52339
aI52339
aI52339
aI52339
aI52339
aI52339
aI52339
aI52339
aI52339
aI52339
aI52339
ass.