(dp0
S'./Data/SS-N2.csv'
p1
(dp2
S'evals'
p3
(lp4
I21553
aI21553
aI21553
aI21553
aI21553
aI21553
aI21553
aI21553
aI21553
aI21553
aI21553
aI21553
aI21553
aI21553
aI21553
aI21553
aI21553
aI21553
aI21553
aI21553
aI21553
aI21553
aI21553
aI21553
aI21553
aI21553
aI21553
aI21553
aI21553
aI21553
asS'rank_diff'
p5
(lp6
I0
aI0
aI0
aI0
aI0
aI0
aI0
aI0
aI0
aI0
aI0
aI0
aI0
aI0
aI0
aI0
aI0
aI0
aI0
aI0
aI0
aI0
aI0
aI0
aI0
aI0
aI0
aI0
aI0
aI0
asS'testsize'
p7
(lp8
I42929
aI42929
aI42929
aI42929
aI42929
aI42929
aI42929
aI42929
aI42929
aI42929
aI42929
aI42929
aI42929
aI42929
aI42929
aI42929
aI42929
aI42929
aI42929
aI42929
aI42929
aI42929
aI42929
aI42929
aI42929
aI42929
aI42929
aI42929
aI42929
aI42929
ass.