(dp0
S'./Data/SS-M1.csv'
p1
(dp2
S'evals'
p3
(lp4
I79292
aI83092
aI82892
aI82292
aI85292
aI83692
aI83692
aI83692
aI80492
aI81492
aI82292
aI83692
aI85692
aI84492
aI84892
aI83692
aI87092
aI84692
aI86692
aI83892
aI82692
aI86692
aI89692
aI84092
aI83892
aI82092
aI89692
aI87292
aI82292
aI87092
asS'rank_diff'
p5
(lp6
I0
aI0
aI0
aI0
aI0
aI0
aI0
aI0
aI0
aI0
aI0
aI0
aI0
aI0
aI0
aI0
aI0
aI0
aI0
aI0
aI0
aI0
aI0
aI0
aI0
aI0
aI0
aI0
aI0
aI0
asS'testsize'
p7
(lp8
I191488
aI191488
aI191488
aI191488
aI191488
aI191488
aI191488
aI191488
aI191488
aI191488
aI191488
aI191488
aI191488
aI191488
aI191488
aI191488
aI191488
aI191488
aI191488
aI191488
aI191488
aI191488
aI191488
aI191488
aI191488
aI191488
aI191488
aI191488
aI191488
aI191488
ass.