(dp0
S'./Data/SS-C2.csv'
p1
(dp2
S'evals'
p3
(lp4
I328
aI343
aI346
aI337
aI326
aI325
aI335
aI352
aI369
aI340
aI339
aI334
aI333
aI340
aI346
aI345
aI341
aI335
aI335
aI330
aI328
aI346
aI365
aI326
aI331
aI344
aI335
aI370
aI335
aI339
asS'rank_diff'
p5
(lp6
I3
aI4
aI1
aI7
aI1
aI0
aI16
aI1
aI1
aI4
aI29
aI1
aI1
aI0
aI3
aI1
aI10
aI1
aI2
aI1
aI14
aI0
aI6
aI11
aI0
aI1
aI4
aI15
aI14
aI3
asS'testsize'
p7
(lp8
I1209
aI1209
aI1209
aI1209
aI1209
aI1209
aI1209
aI1209
aI1209
aI1209
aI1209
aI1209
aI1209
aI1209
aI1209
aI1209
aI1209
aI1209
aI1209
aI1209
aI1209
aI1209
aI1209
aI1209
aI1209
aI1209
aI1209
aI1209
aI1209
aI1209
assS'./Data/SS-B1.csv'
p9
(dp10
g3
(lp11
I61
aI61
aI61
aI61
aI61
aI61
aI61
aI61
aI61
aI61
aI61
aI61
aI62
aI61
aI61
aI61
aI61
aI61
aI64
aI61
aI61
aI61
aI61
aI61
aI64
aI61
aI61
aI62
aI62
aI65
asg5
(lp12
I0
aI0
aI0
aI0
aI0
aI0
aI0
aI6
aI0
aI0
aI0
aI5
aI0
aI0
aI7
aI0
aI0
aI0
aI0
aI0
aI0
aI0
aI0
aI0
aI6
aI17
aI3
aI1
aI1
aI0
asg7
(lp13
I165
aI165
aI165
aI165
aI165
aI165
aI165
aI165
aI165
aI165
aI165
aI165
aI165
aI165
aI165
aI165
aI165
aI165
aI165
aI165
aI165
aI165
aI165
aI165
aI165
aI165
aI165
aI165
aI165
aI165
assS'./Data/SS-D2.csv'
p14
(dp15
g3
(lp16
I126
aI126
aI126
aI126
aI126
aI126
aI126
aI126
aI126
aI126
aI126
aI126
aI126
aI126
aI126
aI126
aI126
aI126
aI126
aI126
aI126
aI126
aI126
aI126
aI126
aI126
aI126
aI126
aI126
aI126
asg5
(lp17
I0
aI0
aI0
aI0
aI0
aI0
aI0
aI0
aI0
aI0
aI1
aI1
aI0
aI0
aI0
aI0
aI0
aI0
aI1
aI0
aI0
aI0
aI0
aI0
aI0
aI0
aI0
aI0
aI1
aI0
asg7
(lp18
I157
aI157
aI157
aI157
aI157
aI157
aI157
aI157
aI157
aI157
aI157
aI157
aI157
aI157
aI157
aI157
aI157
aI157
aI157
aI157
aI157
aI157
aI157
aI157
aI157
aI157
aI157
aI157
aI157
aI157
assS'./Data/SS-A1.csv'
p19
(dp20
g3
(lp21
I312
aI406
aI295
aI300
aI304
aI312
aI314
aI329
aI314
aI314
aI295
aI297
aI309
aI297
aI302
aI351
aI323
aI319
aI327
aI302
aI294
aI312
aI348
aI323
aI299
aI309
aI307
aI335
aI308
aI327
asg5
(lp22
I0
aI0
aI0
aI0
aI0
aI17
aI0
aI0
aI0
aI11
aI4
aI0
aI0
aI0
aI1
aI0
aI0
aI0
aI0
aI0
aI0
aI5
aI0
aI6
aI3
aI1
aI0
aI0
aI3
aI0
asg7
(lp23
I1075
aI1075
aI1075
aI1075
aI1075
aI1075
aI1075
aI1075
aI1075
aI1075
aI1075
aI1075
aI1075
aI1075
aI1075
aI1075
aI1075
aI1075
aI1075
aI1075
aI1075
aI1075
aI1075
aI1075
aI1075
aI1075
aI1075
aI1075
aI1075
aI1075
assS'./Data/SS-D1.csv'
p24
(dp25
g3
(lp26
I126
aI95
aI126
aI108
aI126
aI126
aI104
aI126
aI126
aI126
aI126
aI126
aI126
aI107
aI126
aI126
aI126
aI116
aI126
aI107
aI126
aI126
aI126
aI126
aI126
aI126
aI126
aI126
aI126
aI126
asg5
(lp27
I0
aI0
aI0
aI0
aI0
aI0
aI0
aI0
aI0
aI0
aI0
aI0
aI0
aI0
aI0
aI0
aI0
aI0
aI0
aI0
aI0
aI0
aI0
aI0
aI0
aI0
aI0
aI0
aI0
aI0
asg7
(lp28
I157
aI157
aI157
aI157
aI157
aI157
aI157
aI157
aI157
aI157
aI157
aI157
aI157
aI157
aI157
aI157
aI157
aI157
aI157
aI157
aI157
aI157
aI157
aI157
aI157
aI157
aI157
aI157
aI157
aI157
assS'./Data/SS-A2.csv'
p29
(dp30
g3
(lp31
I314
aI330
aI291
aI308
aI315
aI369
aI352
aI315
aI301
aI301
aI292
aI343
aI308
aI306
aI326
aI348
aI302
aI294
aI299
aI299
aI322
aI305
aI289
aI297
aI319
aI297
aI308
aI304
aI327
aI296
asg5
(lp32
I0
aI9
aI12
aI0
aI2
aI6
aI8
aI0
aI5
aI3
aI0
aI0
aI2
aI0
aI0
aI0
aI6
aI3
aI2
aI0
aI8
aI0
aI0
aI1
aI5
aI0
aI13
aI0
aI2
aI3
asg7
(lp33
I1075
aI1075
aI1075
aI1075
aI1075
aI1075
aI1075
aI1075
aI1075
aI1075
aI1075
aI1075
aI1075
aI1075
aI1075
aI1075
aI1075
aI1075
aI1075
aI1075
aI1075
aI1075
aI1075
aI1075
aI1075
aI1075
aI1075
aI1075
aI1075
aI1075
assS'./Data/SS-C1.csv'
p34
(dp35
g3
(lp36
I350
aI338
aI342
aI356
aI342
aI364
aI346
aI435
aI357
aI333
aI354
aI425
aI365
aI361
aI339
aI350
aI332
aI339
aI349
aI347
aI348
aI334
aI337
aI338
aI364
aI341
aI344
aI402
aI338
aI392
asg5
(lp37
I0
aI1
aI3
aI0
aI0
aI10
aI0
aI2
aI0
aI0
aI2
aI4
aI0
aI7
aI0
aI1
aI1
aI0
aI0
aI6
aI0
aI0
aI5
aI0
aI2
aI7
aI0
aI8
aI1
aI0
asg7
(lp38
I1209
aI1209
aI1209
aI1209
aI1209
aI1209
aI1209
aI1209
aI1209
aI1209
aI1209
aI1209
aI1209
aI1209
aI1209
aI1209
aI1209
aI1209
aI1209
aI1209
aI1209
aI1209
aI1209
aI1209
aI1209
aI1209
aI1209
aI1209
aI1209
aI1209
assS'./Data/SS-B2.csv'
p39
(dp40
g3
(lp41
I74
aI76
aI61
aI78
aI73
aI70
aI93
aI61
aI92
aI77
aI63
aI62
aI79
aI75
aI76
aI71
aI74
aI70
aI80
aI64
aI80
aI61
aI61
aI64
aI81
aI75
aI81
aI63
aI90
aI65
asg5
(lp42
I0
aI0
aI0
aI0
aI0
aI0
aI0
aI0
aI0
aI0
aI13
aI5
aI0
aI0
aI0
aI0
aI0
aI6
aI0
aI0
aI0
aI0
aI0
aI0
aI0
aI0
aI0
aI0
aI0
aI0
asg7
(lp43
I165
aI165
aI165
aI165
aI165
aI165
aI165
aI165
aI165
aI165
aI165
aI165
aI165
aI165
aI165
aI165
aI165
aI165
aI165
aI165
aI165
aI165
aI165
aI165
aI165
aI165
aI165
aI165
aI165
aI165
ass.