(dp0
S'./Data/SS-E1.csv'
p1
(dp2
S'evals'
p3
(lp4
I179
aI180
aI218
aI192
aI181
aI197
aI203
aI204
aI192
aI191
aI204
aI198
aI182
aI206
aI205
aI221
aI179
aI180
aI190
aI200
aI191
aI203
aI207
aI198
aI206
aI193
aI190
aI191
aI193
aI204
asS'rank_diff'
p5
(lp6
I18
aI34
aI0
aI24
aI0
aI0
aI3
aI0
aI0
aI4
aI0
aI0
aI0
aI0
aI0
aI0
aI0
aI36
aI1
aI0
aI0
aI34
aI0
aI0
aI0
aI12
aI0
aI17
aI0
aI0
asS'testsize'
p7
(lp8
I605
aI605
aI605
aI605
aI605
aI605
aI605
aI605
aI605
aI605
aI605
aI605
aI605
aI605
aI605
aI605
aI605
aI605
aI605
aI605
aI605
aI605
aI605
aI605
aI605
aI605
aI605
aI605
aI605
aI605
assS'./Data/SS-C2.csv'
p9
(dp10
g3
(lp11
I328
aI343
aI346
aI337
aI326
aI325
aI335
aI352
aI369
aI340
aI339
aI334
aI333
aI340
aI346
aI345
aI341
aI335
aI335
aI330
aI328
aI346
aI365
aI326
aI331
aI344
aI335
aI370
aI335
aI339
asg5
(lp12
I3
aI4
aI1
aI7
aI1
aI0
aI16
aI1
aI1
aI4
aI29
aI1
aI1
aI0
aI3
aI1
aI10
aI1
aI2
aI1
aI14
aI0
aI6
aI11
aI0
aI1
aI4
aI15
aI14
aI3
asg7
(lp13
I1209
aI1209
aI1209
aI1209
aI1209
aI1209
aI1209
aI1209
aI1209
aI1209
aI1209
aI1209
aI1209
aI1209
aI1209
aI1209
aI1209
aI1209
aI1209
aI1209
aI1209
aI1209
aI1209
aI1209
aI1209
aI1209
aI1209
aI1209
aI1209
aI1209
assS'./Data/SS-B1.csv'
p14
(dp15
g3
(lp16
I61
aI61
aI61
aI61
aI61
aI61
aI61
aI61
aI61
aI61
aI61
aI61
aI62
aI61
aI61
aI61
aI61
aI61
aI64
aI61
aI61
aI61
aI61
aI61
aI64
aI61
aI61
aI62
aI62
aI65
asg5
(lp17
I0
aI0
aI0
aI0
aI0
aI0
aI0
aI6
aI0
aI0
aI0
aI5
aI0
aI0
aI7
aI0
aI0
aI0
aI0
aI0
aI0
aI0
aI0
aI0
aI6
aI17
aI3
aI1
aI1
aI0
asg7
(lp18
I165
aI165
aI165
aI165
aI165
aI165
aI165
aI165
aI165
aI165
aI165
aI165
aI165
aI165
aI165
aI165
aI165
aI165
aI165
aI165
aI165
aI165
aI165
aI165
aI165
aI165
aI165
aI165
aI165
aI165
assS'./Data/SS-D2.csv'
p19
(dp20
g3
(lp21
I126
aI126
aI126
aI126
aI126
aI126
aI126
aI126
aI126
aI126
aI126
aI126
aI126
aI126
aI126
aI126
aI126
aI126
aI126
aI126
aI126
aI126
aI126
aI126
aI126
aI126
aI126
aI126
aI126
aI126
asg5
(lp22
I0
aI0
aI0
aI0
aI0
aI0
aI0
aI0
aI0
aI0
aI1
aI1
aI0
aI0
aI0
aI0
aI0
aI0
aI1
aI0
aI0
aI0
aI0
aI0
aI0
aI0
aI0
aI0
aI1
aI0
asg7
(lp23
I157
aI157
aI157
aI157
aI157
aI157
aI157
aI157
aI157
aI157
aI157
aI157
aI157
aI157
aI157
aI157
aI157
aI157
aI157
aI157
aI157
aI157
aI157
aI157
aI157
aI157
aI157
aI157
aI157
aI157
assS'./Data/SS-E2.csv'
p24
(dp25
g3
(lp26
I462
aI462
aI462
aI462
aI462
aI462
aI462
aI462
aI462
aI462
aI462
aI462
aI303
aI462
aI462
aI462
aI462
aI462
aI462
aI462
aI462
aI462
aI462
aI462
aI462
aI462
aI462
aI462
aI462
aI462
asg5
(lp27
I0
aI0
aI1
aI1
aI0
aI0
aI0
aI1
aI0
aI1
aI0
aI1
aI0
aI0
aI0
aI0
aI0
aI0
aI0
aI1
aI0
aI0
aI0
aI0
aI0
aI0
aI0
aI1
aI1
aI0
asg7
(lp28
I605
aI605
aI605
aI605
aI605
aI605
aI605
aI605
aI605
aI605
aI605
aI605
aI605
aI605
aI605
aI605
aI605
aI605
aI605
aI605
aI605
aI605
aI605
aI605
aI605
aI605
aI605
aI605
aI605
aI605
assS'./Data/SS-A1.csv'
p29
(dp30
g3
(lp31
I312
aI406
aI295
aI300
aI304
aI312
aI314
aI329
aI314
aI314
aI295
aI297
aI309
aI297
aI302
aI351
aI323
aI319
aI327
aI302
aI294
aI312
aI348
aI323
aI299
aI309
aI307
aI335
aI308
aI327
asg5
(lp32
I0
aI0
aI0
aI0
aI0
aI17
aI0
aI0
aI0
aI11
aI4
aI0
aI0
aI0
aI1
aI0
aI0
aI0
aI0
aI0
aI0
aI5
aI0
aI6
aI3
aI1
aI0
aI0
aI3
aI0
asg7
(lp33
I1075
aI1075
aI1075
aI1075
aI1075
aI1075
aI1075
aI1075
aI1075
aI1075
aI1075
aI1075
aI1075
aI1075
aI1075
aI1075
aI1075
aI1075
aI1075
aI1075
aI1075
aI1075
aI1075
aI1075
aI1075
aI1075
aI1075
aI1075
aI1075
aI1075
assS'./Data/SS-D1.csv'
p34
(dp35
g3
(lp36
I126
aI95
aI126
aI108
aI126
aI126
aI104
aI126
aI126
aI126
aI126
aI126
aI126
aI107
aI126
aI126
aI126
aI116
aI126
aI107
aI126
aI126
aI126
aI126
aI126
aI126
aI126
aI126
aI126
aI126
asg5
(lp37
I0
aI0
aI0
aI0
aI0
aI0
aI0
aI0
aI0
aI0
aI0
aI0
aI0
aI0
aI0
aI0
aI0
aI0
aI0
aI0
aI0
aI0
aI0
aI0
aI0
aI0
aI0
aI0
aI0
aI0
asg7
(lp38
I157
aI157
aI157
aI157
aI157
aI157
aI157
aI157
aI157
aI157
aI157
aI157
aI157
aI157
aI157
aI157
aI157
aI157
aI157
aI157
aI157
aI157
aI157
aI157
aI157
aI157
aI157
aI157
aI157
aI157
assS'./Data/SS-J1.csv'
p39
(dp40
g3
(lp41
I1613
aI1285
aI1680
aI1357
aI1565
aI2313
aI1251
aI1429
aI1413
aI2313
aI1341
aI2005
aI1632
aI1401
aI1257
aI1269
aI1141
aI1188
aI2083
aI1253
aI1330
aI1505
aI1850
aI1325
aI1604
aI1160
aI1790
aI1539
aI1433
aI1144
asg5
(lp42
I0
aI0
aI0
aI9
aI0
aI1
aI0
aI1
aI0
aI0
aI1
aI0
aI0
aI0
aI0
aI0
aI0
aI1
aI0
aI0
aI1
aI1
aI0
aI0
aI1
aI0
aI1
aI0
aI0
aI1
asg7
(lp43
I3072
aI3072
aI3072
aI3072
aI3072
aI3072
aI3072
aI3072
aI3072
aI3072
aI3072
aI3072
aI3072
aI3072
aI3072
aI3072
aI3072
aI3072
aI3072
aI3072
aI3072
aI3072
aI3072
aI3072
aI3072
aI3072
aI3072
aI3072
aI3072
aI3072
assS'./Data/SS-A2.csv'
p44
(dp45
g3
(lp46
I314
aI330
aI291
aI308
aI315
aI369
aI352
aI315
aI301
aI301
aI292
aI343
aI308
aI306
aI326
aI348
aI302
aI294
aI299
aI299
aI322
aI305
aI289
aI297
aI319
aI297
aI308
aI304
aI327
aI296
asg5
(lp47
I0
aI9
aI12
aI0
aI2
aI6
aI8
aI0
aI5
aI3
aI0
aI0
aI2
aI0
aI0
aI0
aI6
aI3
aI2
aI0
aI8
aI0
aI0
aI1
aI5
aI0
aI13
aI0
aI2
aI3
asg7
(lp48
I1075
aI1075
aI1075
aI1075
aI1075
aI1075
aI1075
aI1075
aI1075
aI1075
aI1075
aI1075
aI1075
aI1075
aI1075
aI1075
aI1075
aI1075
aI1075
aI1075
aI1075
aI1075
aI1075
aI1075
aI1075
aI1075
aI1075
aI1075
aI1075
aI1075
assS'./Data/SS-I2.csv'
p49
(dp50
g3
(lp51
I255
aI243
aI268
aI261
aI260
aI261
aI250
aI265
aI262
aI264
aI246
aI251
aI267
aI250
aI256
aI261
aI256
aI256
aI259
aI255
aI241
aI250
aI248
aI254
aI286
aI262
aI262
aI253
aI282
aI270
asg5
(lp52
I0
aI0
aI0
aI0
aI0
aI0
aI3
aI0
aI0
aI0
aI0
aI0
aI2
aI0
aI0
aI2
aI1
aI0
aI2
aI0
aI0
aI2
aI69
aI4
aI0
aI0
aI1
aI0
aI0
aI3
asg7
(lp53
I864
aI864
aI864
aI864
aI864
aI864
aI864
aI864
aI864
aI864
aI864
aI864
aI864
aI864
aI864
aI864
aI864
aI864
aI864
aI864
aI864
aI864
aI864
aI864
aI864
aI864
aI864
aI864
aI864
aI864
assS'./Data/SS-F1.csv'
p54
(dp55
g3
(lp56
I126
aI107
aI103
aI82
aI108
aI119
aI126
aI122
aI126
aI96
aI91
aI123
aI82
aI92
aI112
aI126
aI118
aI114
aI90
aI126
aI98
aI104
aI104
aI87
aI99
aI126
aI126
aI87
aI105
aI89
asg5
(lp57
I0
aI0
aI0
aI0
aI0
aI0
aI0
aI0
aI0
aI0
aI0
aI0
aI0
aI1
aI0
aI0
aI0
aI0
aI0
aI0
aI1
aI0
aI0
aI0
aI0
aI0
aI0
aI0
aI0
aI0
asg7
(lp58
I157
aI157
aI157
aI157
aI157
aI157
aI157
aI157
aI157
aI157
aI157
aI157
aI157
aI157
aI157
aI157
aI157
aI157
aI157
aI157
aI157
aI157
aI157
aI157
aI157
aI157
aI157
aI157
aI157
aI157
assS'./Data/SS-H2.csv'
p59
(dp60
g3
(lp61
I72
aI72
aI72
aI72
aI72
aI72
aI72
aI72
aI72
aI72
aI72
aI72
aI72
aI72
aI72
aI72
aI72
aI72
aI72
aI72
aI72
aI72
aI72
aI72
aI72
aI72
aI72
aI72
aI72
aI72
asg5
(lp62
I0
aI0
aI6
aI0
aI0
aI0
aI0
aI0
aI8
aI0
aI4
aI0
aI0
aI0
aI0
aI0
aI1
aI6
aI6
aI19
aI0
aI0
aI0
aI0
aI20
aI0
aI0
aI2
aI0
aI0
asg7
(lp63
I207
aI207
aI207
aI207
aI207
aI207
aI207
aI207
aI207
aI207
aI207
aI207
aI207
aI207
aI207
aI207
aI207
aI207
aI207
aI207
aI207
aI207
aI207
aI207
aI207
aI207
aI207
aI207
aI207
aI207
assS'./Data/SS-G1.csv'
p64
(dp65
g3
(lp66
I109
aI126
aI126
aI126
aI95
aI96
aI126
aI126
aI126
aI96
aI126
aI126
aI126
aI126
aI117
aI103
aI107
aI126
aI104
aI126
aI126
aI99
aI108
aI126
aI126
aI96
aI114
aI88
aI96
aI126
asg5
(lp67
I0
aI0
aI0
aI0
aI0
aI0
aI0
aI0
aI0
aI0
aI0
aI0
aI1
aI0
aI0
aI0
aI0
aI0
aI0
aI0
aI0
aI0
aI0
aI0
aI0
aI0
aI0
aI0
aI0
aI0
asg7
(lp68
I157
aI157
aI157
aI157
aI157
aI157
aI157
aI157
aI157
aI157
aI157
aI157
aI157
aI157
aI157
aI157
aI157
aI157
aI157
aI157
aI157
aI157
aI157
aI157
aI157
aI157
aI157
aI157
aI157
aI157
assS'./Data/SS-F2.csv'
p69
(dp70
g3
(lp71
I126
aI126
aI126
aI126
aI126
aI126
aI126
aI126
aI126
aI126
aI126
aI126
aI126
aI126
aI126
aI126
aI126
aI126
aI126
aI126
aI126
aI126
aI126
aI126
aI126
aI126
aI126
aI126
aI126
aI126
asg5
(lp72
I0
aI0
aI0
aI0
aI0
aI0
aI0
aI0
aI0
aI0
aI0
aI0
aI0
aI0
aI0
aI0
aI0
aI0
aI0
aI0
aI0
aI0
aI0
aI0
aI0
aI0
aI0
aI0
aI0
aI0
asg7
(lp73
I157
aI157
aI157
aI157
aI157
aI157
aI157
aI157
aI157
aI157
aI157
aI157
aI157
aI157
aI157
aI157
aI157
aI157
aI157
aI157
aI157
aI157
aI157
aI157
aI157
aI157
aI157
aI157
aI157
aI157
assS'./Data/SS-H1.csv'
p74
(dp75
g3
(lp76
I73
aI72
aI72
aI72
aI72
aI72
aI72
aI72
aI76
aI74
aI72
aI72
aI72
aI73
aI72
aI72
aI72
aI72
aI72
aI72
aI72
aI72
aI72
aI72
aI72
aI72
aI72
aI72
aI72
aI72
asg5
(lp77
I1
aI0
aI0
aI0
aI0
aI0
aI11
aI0
aI13
aI3
aI0
aI0
aI3
aI60
aI18
aI2
aI0
aI1
aI0
aI0
aI0
aI6
aI0
aI0
aI0
aI9
aI0
aI0
aI0
aI0
asg7
(lp78
I207
aI207
aI207
aI207
aI207
aI207
aI207
aI207
aI207
aI207
aI207
aI207
aI207
aI207
aI207
aI207
aI207
aI207
aI207
aI207
aI207
aI207
aI207
aI207
aI207
aI207
aI207
aI207
aI207
aI207
assS'./Data/SS-C1.csv'
p79
(dp80
g3
(lp81
I350
aI338
aI342
aI356
aI342
aI364
aI346
aI435
aI357
aI333
aI354
aI425
aI365
aI361
aI339
aI350
aI332
aI339
aI349
aI347
aI348
aI334
aI337
aI338
aI364
aI341
aI344
aI402
aI338
aI392
asg5
(lp82
I0
aI1
aI3
aI0
aI0
aI10
aI0
aI2
aI0
aI0
aI2
aI4
aI0
aI7
aI0
aI1
aI1
aI0
aI0
aI6
aI0
aI0
aI5
aI0
aI2
aI7
aI0
aI8
aI1
aI0
asg7
(lp83
I1209
aI1209
aI1209
aI1209
aI1209
aI1209
aI1209
aI1209
aI1209
aI1209
aI1209
aI1209
aI1209
aI1209
aI1209
aI1209
aI1209
aI1209
aI1209
aI1209
aI1209
aI1209
aI1209
aI1209
aI1209
aI1209
aI1209
aI1209
aI1209
aI1209
assS'./Data/SS-B2.csv'
p84
(dp85
g3
(lp86
I74
aI76
aI61
aI78
aI73
aI70
aI93
aI61
aI92
aI77
aI63
aI62
aI79
aI75
aI76
aI71
aI74
aI70
aI80
aI64
aI80
aI61
aI61
aI64
aI81
aI75
aI81
aI63
aI90
aI65
asg5
(lp87
I0
aI0
aI0
aI0
aI0
aI0
aI0
aI0
aI0
aI0
aI13
aI5
aI0
aI0
aI0
aI0
aI0
aI6
aI0
aI0
aI0
aI0
aI0
aI0
aI0
aI0
aI0
aI0
aI0
aI0
asg7
(lp88
I165
aI165
aI165
aI165
aI165
aI165
aI165
aI165
aI165
aI165
aI165
aI165
aI165
aI165
aI165
aI165
aI165
aI165
aI165
aI165
aI165
aI165
aI165
aI165
aI165
aI165
aI165
aI165
aI165
aI165
assS'./Data/SS-G2.csv'
p89
(dp90
g3
(lp91
I126
aI126
aI126
aI126
aI126
aI126
aI126
aI126
aI126
aI126
aI126
aI126
aI126
aI126
aI126
aI126
aI126
aI126
aI126
aI126
aI126
aI126
aI126
aI126
aI126
aI126
aI126
aI126
aI126
aI126
asg5
(lp92
I0
aI1
aI0
aI0
aI0
aI0
aI0
aI0
aI0
aI1
aI1
aI0
aI0
aI0
aI0
aI0
aI0
aI0
aI0
aI1
aI0
aI0
aI0
aI0
aI0
aI0
aI0
aI0
aI0
aI0
asg7
(lp93
I157
aI157
aI157
aI157
aI157
aI157
aI157
aI157
aI157
aI157
aI157
aI157
aI157
aI157
aI157
aI157
aI157
aI157
aI157
aI157
aI157
aI157
aI157
aI157
aI157
aI157
aI157
aI157
aI157
aI157
assS'./Data/SS-I1.csv'
p94
(dp95
g3
(lp96
I236
aI249
aI247
aI248
aI252
aI239
aI251
aI236
aI264
aI237
aI242
aI239
aI240
aI291
aI248
aI256
aI241
aI249
aI239
aI243
aI236
aI238
aI240
aI237
aI236
aI242
aI245
aI247
aI298
aI269
asg5
(lp97
I2
aI1
aI1
aI1
aI0
aI8
aI1
aI0
aI5
aI1
aI2
aI0
aI3
aI0
aI0
aI1
aI0
aI1
aI1
aI1
aI28
aI1
aI2
aI1
aI2
aI1
aI1
aI3
aI0
aI5
asg7
(lp98
I864
aI864
aI864
aI864
aI864
aI864
aI864
aI864
aI864
aI864
aI864
aI864
aI864
aI864
aI864
aI864
aI864
aI864
aI864
aI864
aI864
aI864
aI864
aI864
aI864
aI864
aI864
aI864
aI864
aI864
ass.