(dp0
S'./Data/SS-A2.csv'
p1
(dp2
S'evals'
p3
(lp4
I314
aI330
aI291
aI308
aI315
aI369
aI352
aI315
aI301
aI301
aI292
aI343
aI308
aI306
aI326
aI348
aI302
aI294
aI299
aI299
aI322
aI305
aI289
aI297
aI319
aI297
aI308
aI304
aI327
aI296
asS'rank_diff'
p5
(lp6
I0
aI9
aI12
aI0
aI2
aI6
aI8
aI0
aI5
aI3
aI0
aI0
aI2
aI0
aI0
aI0
aI6
aI3
aI2
aI0
aI8
aI0
aI0
aI1
aI5
aI0
aI13
aI0
aI2
aI3
asS'testsize'
p7
(lp8
I1075
aI1075
aI1075
aI1075
aI1075
aI1075
aI1075
aI1075
aI1075
aI1075
aI1075
aI1075
aI1075
aI1075
aI1075
aI1075
aI1075
aI1075
aI1075
aI1075
aI1075
aI1075
aI1075
aI1075
aI1075
aI1075
aI1075
aI1075
aI1075
aI1075
assS'./Data/SS-A1.csv'
p9
(dp10
g3
(lp11
I312
aI406
aI295
aI300
aI304
aI312
aI314
aI329
aI314
aI314
aI295
aI297
aI309
aI297
aI302
aI351
aI323
aI319
aI327
aI302
aI294
aI312
aI348
aI323
aI299
aI309
aI307
aI335
aI308
aI327
asg5
(lp12
I0
aI0
aI0
aI0
aI0
aI17
aI0
aI0
aI0
aI11
aI4
aI0
aI0
aI0
aI1
aI0
aI0
aI0
aI0
aI0
aI0
aI5
aI0
aI6
aI3
aI1
aI0
aI0
aI3
aI0
asg7
(lp13
I1075
aI1075
aI1075
aI1075
aI1075
aI1075
aI1075
aI1075
aI1075
aI1075
aI1075
aI1075
aI1075
aI1075
aI1075
aI1075
aI1075
aI1075
aI1075
aI1075
aI1075
aI1075
aI1075
aI1075
aI1075
aI1075
aI1075
aI1075
aI1075
aI1075
assS'./Data/SS-B2.csv'
p14
(dp15
g3
(lp16
I74
aI76
aI61
aI78
aI73
aI70
aI93
aI61
aI92
aI77
aI63
aI62
aI79
aI75
aI76
aI71
aI74
aI70
aI80
aI64
aI80
aI61
aI61
aI64
aI81
aI75
aI81
aI63
aI90
aI65
asg5
(lp17
I0
aI0
aI0
aI0
aI0
aI0
aI0
aI0
aI0
aI0
aI13
aI5
aI0
aI0
aI0
aI0
aI0
aI6
aI0
aI0
aI0
aI0
aI0
aI0
aI0
aI0
aI0
aI0
aI0
aI0
asg7
(lp18
I165
aI165
aI165
aI165
aI165
aI165
aI165
aI165
aI165
aI165
aI165
aI165
aI165
aI165
aI165
aI165
aI165
aI165
aI165
aI165
aI165
aI165
aI165
aI165
aI165
aI165
aI165
aI165
aI165
aI165
assS'./Data/SS-B1.csv'
p19
(dp20
g3
(lp21
I61
aI61
aI61
aI61
aI61
aI61
aI61
aI61
aI61
aI61
aI61
aI61
aI62
aI61
aI61
aI61
aI61
aI61
aI64
aI61
aI61
aI61
aI61
aI61
aI64
aI61
aI61
aI62
aI62
aI65
asg5
(lp22
I0
aI0
aI0
aI0
aI0
aI0
aI0
aI6
aI0
aI0
aI0
aI5
aI0
aI0
aI7
aI0
aI0
aI0
aI0
aI0
aI0
aI0
aI0
aI0
aI6
aI17
aI3
aI1
aI1
aI0
asg7
(lp23
I165
aI165
aI165
aI165
aI165
aI165
aI165
aI165
aI165
aI165
aI165
aI165
aI165
aI165
aI165
aI165
aI165
aI165
aI165
aI165
aI165
aI165
aI165
aI165
aI165
aI165
aI165
aI165
aI165
aI165
ass.