(dp0
S'./Data/SS-N1.csv'
p1
(dp2
S'evals'
p3
(lp4
I10953
aI10753
aI10753
aI10753
aI10753
aI10953
aI10753
aI10753
aI10753
aI10953
aI10753
aI10953
aI10753
aI10753
aI10953
aI10753
aI10753
aI10953
aI10953
aI10753
aI10753
aI10953
aI10953
aI10953
aI10753
aI10753
aI10753
aI10753
aI10953
aI10753
asS'rank_diff'
p5
(lp6
I271
aI0
aI72
aI5
aI17
aI80
aI0
aI231
aI5
aI137
aI191
aI6
aI1
aI77
aI68
aI0
aI0
aI0
aI69
aI7
aI42
aI67
aI34
aI0
aI1
aI36
aI9
aI4
aI453
aI8
asS'testsize'
p7
(lp8
I42929
aI42929
aI42929
aI42929
aI42929
aI42929
aI42929
aI42929
aI42929
aI42929
aI42929
aI42929
aI42929
aI42929
aI42929
aI42929
aI42929
aI42929
aI42929
aI42929
aI42929
aI42929
aI42929
aI42929
aI42929
aI42929
aI42929
aI42929
aI42929
aI42929
ass.